
sdram.elf:     file format elf32-littlenios2
sdram.elf
architecture: nios2, flags 0x00000112:
EXEC_P, HAS_SYMS, D_PAGED
start address 0x020001b4

Program Header:
    LOAD off    0x00001000 vaddr 0x02000000 paddr 0x02000000 align 2**12
         filesz 0x00000020 memsz 0x00000020 flags r-x
    LOAD off    0x00001020 vaddr 0x02000020 paddr 0x02000020 align 2**12
         filesz 0x00011b8c memsz 0x00011b8c flags r-x
    LOAD off    0x00012bac vaddr 0x02011bac paddr 0x02012698 align 2**12
         filesz 0x00000aec memsz 0x00000aec flags rw-
    LOAD off    0x00014184 vaddr 0x02013184 paddr 0x02013184 align 2**12
         filesz 0x00000000 memsz 0x000003ec flags rw-

Sections:
Idx Name          Size      VMA       LMA       File off  Algn
  0 .entry        00000020  02000000  02000000  00001000  2**5
                  CONTENTS, ALLOC, LOAD, READONLY, CODE
  1 .exceptions   00000194  02000020  02000020  00001020  2**2
                  CONTENTS, ALLOC, LOAD, READONLY, CODE
  2 .text         000113c4  020001b4  020001b4  000011b4  2**2
                  CONTENTS, ALLOC, LOAD, READONLY, CODE
  3 .rodata       00000634  02011578  02011578  00012578  2**2
                  CONTENTS, ALLOC, LOAD, READONLY, DATA
  4 .rwdata       00000aec  02011bac  02012698  00012bac  2**2
                  CONTENTS, ALLOC, LOAD, DATA, SMALL_DATA
  5 .bss          000003ec  02013184  02013184  00014184  2**2
                  ALLOC, SMALL_DATA
  6 .comment      00000026  00000000  00000000  00013698  2**0
                  CONTENTS, READONLY
  7 .debug_aranges 00000f98  00000000  00000000  000136c0  2**3
                  CONTENTS, READONLY, DEBUGGING
  8 .debug_pubnames 000016cd  00000000  00000000  00014658  2**0
                  CONTENTS, READONLY, DEBUGGING
  9 .debug_info   0002c376  00000000  00000000  00015d25  2**0
                  CONTENTS, READONLY, DEBUGGING
 10 .debug_abbrev 00009d5f  00000000  00000000  0004209b  2**0
                  CONTENTS, READONLY, DEBUGGING
 11 .debug_line   000192a0  00000000  00000000  0004bdfa  2**0
                  CONTENTS, READONLY, DEBUGGING
 12 .debug_frame  00001e50  00000000  00000000  0006509c  2**2
                  CONTENTS, READONLY, DEBUGGING
 13 .debug_str    000029b4  00000000  00000000  00066eec  2**0
                  CONTENTS, READONLY, DEBUGGING
 14 .debug_loc    00011b71  00000000  00000000  000698a0  2**0
                  CONTENTS, READONLY, DEBUGGING
 15 .debug_alt_sim_info 00000030  00000000  00000000  0007b414  2**2
                  CONTENTS, READONLY, DEBUGGING
 16 .debug_ranges 00000b30  00000000  00000000  0007b448  2**3
                  CONTENTS, READONLY, DEBUGGING
 17 .thread_model 00000003  00000000  00000000  0007f4fa  2**0
                  CONTENTS, READONLY
 18 .cpu          0000000c  00000000  00000000  0007f4fd  2**0
                  CONTENTS, READONLY
 19 .qsys         00000001  00000000  00000000  0007f509  2**0
                  CONTENTS, READONLY
 20 .simulation_enabled 00000001  00000000  00000000  0007f50a  2**0
                  CONTENTS, READONLY
 21 .sysid_hash   00000004  00000000  00000000  0007f50b  2**0
                  CONTENTS, READONLY
 22 .sysid_base   00000004  00000000  00000000  0007f50f  2**0
                  CONTENTS, READONLY
 23 .sysid_time   00000004  00000000  00000000  0007f513  2**0
                  CONTENTS, READONLY
 24 .stderr_dev   00000006  00000000  00000000  0007f517  2**0
                  CONTENTS, READONLY
 25 .stdin_dev    00000006  00000000  00000000  0007f51d  2**0
                  CONTENTS, READONLY
 26 .stdout_dev   00000006  00000000  00000000  0007f523  2**0
                  CONTENTS, READONLY
 27 .sopc_system_name 00000003  00000000  00000000  0007f529  2**0
                  CONTENTS, READONLY
 28 .quartus_project_dir 00000020  00000000  00000000  0007f52c  2**0
                  CONTENTS, READONLY
 29 .sopcinfo     0003e492  00000000  00000000  0007f54c  2**0
                  CONTENTS, READONLY
SYMBOL TABLE:
02000000 l    d  .entry	00000000 .entry
02000020 l    d  .exceptions	00000000 .exceptions
020001b4 l    d  .text	00000000 .text
02011578 l    d  .rodata	00000000 .rodata
02011bac l    d  .rwdata	00000000 .rwdata
02013184 l    d  .bss	00000000 .bss
00000000 l    d  .comment	00000000 .comment
00000000 l    d  .debug_aranges	00000000 .debug_aranges
00000000 l    d  .debug_pubnames	00000000 .debug_pubnames
00000000 l    d  .debug_info	00000000 .debug_info
00000000 l    d  .debug_abbrev	00000000 .debug_abbrev
00000000 l    d  .debug_line	00000000 .debug_line
00000000 l    d  .debug_frame	00000000 .debug_frame
00000000 l    d  .debug_str	00000000 .debug_str
00000000 l    d  .debug_loc	00000000 .debug_loc
00000000 l    d  .debug_alt_sim_info	00000000 .debug_alt_sim_info
00000000 l    d  .debug_ranges	00000000 .debug_ranges
020001fc l       .text	00000000 alt_after_alt_main
00000000 l    df *ABS*	00000000 alt_irq_handler.c
00000000 l    df *ABS*	00000000 hello_world.c
00000000 l    df *ABS*	00000000 printf.c
00000000 l    df *ABS*	00000000 scanf.c
00000000 l    df *ABS*	00000000 vfprintf.c
0200036c l     F .text	00000058 __sprint_r
020115ea l     O .rodata	00000010 blanks.3452
020115da l     O .rodata	00000010 zeroes.3453
00000000 l    df *ABS*	00000000 vfscanf.c
02011602 l     O .rodata	00000022 basefix.3357
00000000 l    df *ABS*	00000000 wsetup.c
00000000 l    df *ABS*	00000000 ctype_.c
02011725 l     O .rodata	00000180 _ctype_b
00000000 l    df *ABS*	00000000 dtoa.c
02003b50 l     F .text	00000218 quorem
00000000 l    df *ABS*	00000000 fflush.c
00000000 l    df *ABS*	00000000 findfp.c
0200554c l     F .text	00000058 std
02005658 l     F .text	00000008 __fp_lock
02005660 l     F .text	00000008 __fp_unlock
00000000 l    df *ABS*	00000000 fread.c
00000000 l    df *ABS*	00000000 mallocr.c
00000000 l    df *ABS*	00000000 fvwrite.c
00000000 l    df *ABS*	00000000 fwalk.c
00000000 l    df *ABS*	00000000 impure.c
02011bac l     O .rwdata	00000400 impure_data
00000000 l    df *ABS*	00000000 iswspace.c
00000000 l    df *ABS*	00000000 locale.c
02012664 l     O .rwdata	00000004 charset
020118cc l     O .rodata	00000030 lconv
00000000 l    df *ABS*	00000000 makebuf.c
00000000 l    df *ABS*	00000000 mallocr.c
00000000 l    df *ABS*	00000000 mbrtowc.c
00000000 l    df *ABS*	00000000 mbtowc_r.c
00000000 l    df *ABS*	00000000 memchr.c
00000000 l    df *ABS*	00000000 memcpy.c
00000000 l    df *ABS*	00000000 memmove.c
00000000 l    df *ABS*	00000000 memset.c
00000000 l    df *ABS*	00000000 mprec.c
02011a14 l     O .rodata	0000000c p05.2458
00000000 l    df *ABS*	00000000 mallocr.c
00000000 l    df *ABS*	00000000 refill.c
02008a10 l     F .text	0000001c lflush
00000000 l    df *ABS*	00000000 s_isinfd.c
00000000 l    df *ABS*	00000000 s_isnand.c
00000000 l    df *ABS*	00000000 sbrkr.c
00000000 l    df *ABS*	00000000 sccl.c
00000000 l    df *ABS*	00000000 sf_nan.c
00000000 l    df *ABS*	00000000 sprintf.c
00000000 l    df *ABS*	00000000 stdio.c
00000000 l    df *ABS*	00000000 strcmp.c
00000000 l    df *ABS*	00000000 strlen.c
00000000 l    df *ABS*	00000000 strtod.c
02008f24 l     F .text	00000048 match
020123d4 l     O .rwdata	00000014 fpi.1950
02011a30 l     O .rodata	00000028 tinytens
020123c0 l     O .rwdata	00000014 fpinan.1986
00000000 l    df *ABS*	00000000 strtol.c
00000000 l    df *ABS*	00000000 strtoll_r.c
00000000 l    df *ABS*	00000000 strtoul.c
00000000 l    df *ABS*	00000000 strtoull_r.c
00000000 l    df *ABS*	00000000 ungetc.c
00000000 l    df *ABS*	00000000 writer.c
00000000 l    df *ABS*	00000000 mallocr.c
00000000 l    df *ABS*	00000000 closer.c
00000000 l    df *ABS*	00000000 fclose.c
00000000 l    df *ABS*	00000000 fstatr.c
00000000 l    df *ABS*	00000000 gdtoa-gethex.c
0200b61c l     F .text	00000024 htinit
0200b6a8 l     F .text	000000b0 rshift
00000000 l    df *ABS*	00000000 gdtoa-hexnan.c
0200bf10 l     F .text	0000004c L_shift
00000000 l    df *ABS*	00000000 int_errno.c
00000000 l    df *ABS*	00000000 isattyr.c
00000000 l    df *ABS*	00000000 lseekr.c
00000000 l    df *ABS*	00000000 readr.c
00000000 l    df *ABS*	00000000 libgcc2.c
00000000 l    df *ABS*	00000000 libgcc2.c
00000000 l    df *ABS*	00000000 libgcc2.c
00000000 l    df *ABS*	00000000 libgcc2.c
00000000 l    df *ABS*	00000000 fp-bit.c
00000000 l    df *ABS*	00000000 fp-bit.c
00000000 l    df *ABS*	00000000 fp-bit.c
00000000 l    df *ABS*	00000000 dp-bit.c
0200d134 l     F .text	00000410 _fpadd_parts
00000000 l    df *ABS*	00000000 dp-bit.c
00000000 l    df *ABS*	00000000 dp-bit.c
00000000 l    df *ABS*	00000000 dp-bit.c
00000000 l    df *ABS*	00000000 dp-bit.c
00000000 l    df *ABS*	00000000 dp-bit.c
00000000 l    df *ABS*	00000000 dp-bit.c
00000000 l    df *ABS*	00000000 dp-bit.c
00000000 l    df *ABS*	00000000 dp-bit.c
00000000 l    df *ABS*	00000000 dp-bit.c
00000000 l    df *ABS*	00000000 dp-bit.c
00000000 l    df *ABS*	00000000 dp-bit.c
00000000 l    df *ABS*	00000000 dp-bit.c
00000000 l    df *ABS*	00000000 dp-bit.c
00000000 l    df *ABS*	00000000 lib2-divmod.c
0200e35c l     F .text	0000007c udivmodsi4
00000000 l    df *ABS*	00000000 libgcc2.c
00000000 l    df *ABS*	00000000 libgcc2.c
00000000 l    df *ABS*	00000000 fp-bit.c
00000000 l    df *ABS*	00000000 fp-bit.c
00000000 l    df *ABS*	00000000 fp-bit.c
00000000 l    df *ABS*	00000000 dp-bit.c
00000000 l    df *ABS*	00000000 dp-bit.c
00000000 l    df *ABS*	00000000 dp-bit.c
00000000 l    df *ABS*	00000000 fp-bit.c
00000000 l    df *ABS*	00000000 alt_close.c
0200ee34 l     F .text	00000060 alt_get_errno
00000000 l    df *ABS*	00000000 alt_dev.c
0200ee94 l     F .text	0000002c alt_dev_null_write
00000000 l    df *ABS*	00000000 alt_errno.c
00000000 l    df *ABS*	00000000 alt_fstat.c
0200ef94 l     F .text	00000060 alt_get_errno
00000000 l    df *ABS*	00000000 alt_isatty.c
0200f0b4 l     F .text	00000060 alt_get_errno
00000000 l    df *ABS*	00000000 alt_load.c
0200f194 l     F .text	0000006c alt_load_section
00000000 l    df *ABS*	00000000 alt_lseek.c
0200f2f0 l     F .text	00000060 alt_get_errno
00000000 l    df *ABS*	00000000 alt_main.c
00000000 l    df *ABS*	00000000 alt_malloc_lock.c
00000000 l    df *ABS*	00000000 alt_read.c
0200f51c l     F .text	00000060 alt_get_errno
00000000 l    df *ABS*	00000000 alt_release_fd.c
00000000 l    df *ABS*	00000000 alt_sbrk.c
02012688 l     O .rwdata	00000004 heap_end
00000000 l    df *ABS*	00000000 alt_write.c
0200f7b8 l     F .text	00000060 alt_get_errno
00000000 l    df *ABS*	00000000 alt_sys_init.c
02012590 l     O .rwdata	000000c4 uart_0
0200f8a8 l     F .text	00000038 alt_dev_reg
00000000 l    df *ABS*	00000000 altera_avalon_timer_sc.c
0200f8e0 l     F .text	00000070 alt_avalon_timer_sc_irq
00000000 l    df *ABS*	00000000 altera_avalon_uart_fd.c
00000000 l    df *ABS*	00000000 altera_avalon_uart_init.c
0200fba0 l     F .text	0000009c altera_avalon_uart_irq
0200fc3c l     F .text	000000e0 altera_avalon_uart_rxirq
0200fd1c l     F .text	0000015c altera_avalon_uart_txirq
00000000 l    df *ABS*	00000000 altera_avalon_uart_read.c
02010108 l     F .text	00000060 alt_get_errno
00000000 l    df *ABS*	00000000 altera_avalon_uart_write.c
02010330 l     F .text	00000060 alt_get_errno
00000000 l    df *ABS*	00000000 alt_dcache_flush_all.c
00000000 l    df *ABS*	00000000 alt_dev_llist_insert.c
02010488 l     F .text	00000060 alt_get_errno
00000000 l    df *ABS*	00000000 alt_do_ctors.c
00000000 l    df *ABS*	00000000 alt_do_dtors.c
00000000 l    df *ABS*	00000000 alt_icache_flush_all.c
00000000 l    df *ABS*	00000000 alt_iic.c
00000000 l    df *ABS*	00000000 alt_iic_isr_register.c
00000000 l    df *ABS*	00000000 alt_io_redirect.c
020108ac l     F .text	000000c4 alt_open_fd
00000000 l    df *ABS*	00000000 alt_irq_vars.c
00000000 l    df *ABS*	00000000 alt_open.c
020109e8 l     F .text	000000dc alt_file_locked
02010c4c l     F .text	00000060 alt_get_errno
00000000 l    df *ABS*	00000000 alt_tick.c
00000000 l    df *ABS*	00000000 altera_nios2_qsys_irq.c
00000000 l    df *ABS*	00000000 alt_find_dev.c
00000000 l    df *ABS*	00000000 alt_find_file.c
00000000 l    df *ABS*	00000000 alt_get_fd.c
00000000 l    df *ABS*	00000000 alt_icache_flush.c
00000000 l    df *ABS*	00000000 atexit.c
00000000 l    df *ABS*	00000000 exit.c
00000000 l    df *ABS*	00000000 memcmp.c
00000000 l    df *ABS*	00000000 __atexit.c
00000000 l    df *ABS*	00000000 __call_atexit.c
02011360 l     F .text	00000004 register_fini
00000000 l    df *ABS*	00000000 alt_exit.c
02011514 l     F .text	00000040 alt_sim_halt
02007670 g     F .text	00000094 _mprec_log10
0200775c g     F .text	00000088 __any_on
0200c1a4 g     F .text	00000070 _isatty_r
020119ec g     O .rodata	00000028 __mprec_tinytens
0200f350 g     F .text	0000006c alt_main
020132e0 g     O .bss	00000100 alt_irq
0200c214 g     F .text	00000078 _lseek_r
02012698 g       *ABS*	00000000 __flash_rwdata_start
0200dc54 g     F .text	00000088 __eqdf2
02013570 g       *ABS*	00000000 __alt_heap_start
02000278 g     F .text	00000044 printf
02008cb0 g     F .text	00000068 __sseek
020055b4 g     F .text	000000a4 __sinit
020064f4 g     F .text	00000084 _setlocale_r
020056b4 g     F .text	00000068 __sfmoreglue
0200b2cc g     F .text	0000001c ungetc
0200f3dc g     F .text	00000020 __malloc_unlock
02008f6c g     F .text	000014e4 _strtod_r
020070ec g     F .text	000000e0 memmove
020056a4 g     F .text	00000010 _cleanup
020077e4 g     F .text	000000bc _Balloc
0200dd64 g     F .text	00000088 __gtdf2
00000000  w      *UND*	00000000 __errno
02000000 g     F .entry	0000001c __reset
02000020 g       *ABS*	00000000 __flash_exceptions_start
0200b5a8 g     F .text	00000074 _fstat_r
0201319c g     O .bss	00000004 errno
02003914 g     F .text	00000024 __svfscanf
0200e698 g     F .text	0000002c __make_fp
020131a4 g     O .bss	00000004 alt_argv
0201a654 g       *ABS*	00000000 _gp
02012410 g     O .rwdata	00000180 alt_fd_list
02010e70 g     F .text	00000094 alt_find_dev
0200704c g     F .text	000000a0 memcpy
0200bf5c g     F .text	00000248 __hexnan
02005698 g     F .text	0000000c _cleanup_r
0200df84 g     F .text	000000f8 __floatsidf
02010970 g     F .text	00000078 alt_io_redirect
0200de74 g     F .text	00000088 __ltdf2
02011578 g       *ABS*	00000000 __DTOR_END__
02006ee8 g     F .text	00000040 mbrtowc
02003938 g     F .text	00000068 _vfscanf_r
020075c0 g     F .text	000000b0 __ratio
00000000  w      *UND*	00000000 malloc
020002bc g     F .text	00000034 _printf_r
0200e498 g     F .text	00000008 __udivsi3
0200eff4 g     F .text	000000c0 isatty
020064a4 g     F .text	0000002c iswspace
020118fc g     O .rodata	000000c8 __mprec_tens
020064d0 g     F .text	00000008 __locale_charset
0200c39c g     F .text	000000a4 __fixunsdfsi
020110dc g     F .text	00000090 alt_icache_flush
02013190 g     O .bss	00000004 __malloc_top_pad
0200ad40 g     F .text	00000024 strtoul
02012660 g     O .rwdata	00000004 __mb_cur_max
020064d8 g     F .text	0000000c _localeconv_r
0200ad64 g     F .text	000002f0 _strtoull_r
02007edc g     F .text	0000003c __i2b
02005e88 g     F .text	0000049c __sfvwrite_r
02008a9c g     F .text	00000070 _sbrk_r
0200c28c g     F .text	00000078 _read_r
02011fac g     O .rwdata	0000000c __lc_ctype
02012680 g     O .rwdata	00000004 alt_max_fd
0200e9d8 g     F .text	00000138 __unpack_d
0200b484 g     F .text	00000110 _fclose_r
02005518 g     F .text	00000034 fflush
02013194 g     O .bss	00000004 __malloc_max_sbrked_mem
0200d5c4 g     F .text	00000074 __adddf3
0200cfcc g     F .text	00000078 __nesf2
020074a0 g     F .text	00000120 __b2d
0200ca1c g     F .text	000005b0 __umoddi3
0200f200 g     F .text	000000f0 lseek
0201265c g     O .rwdata	00000004 _global_impure_ptr
02008258 g     F .text	000005f4 _realloc_r
02013570 g       *ABS*	00000000 __bss_end
020107b4 g     F .text	000000f8 alt_iic_isr_register
02010d44 g     F .text	0000010c alt_tick
020131e0 g     O .bss	00000100 __hexdig
0200c440 g     F .text	000005dc __udivdi3
020119c4 g     O .rodata	00000028 __mprec_bigtens
02008138 g     F .text	00000120 __s2b
0200e1c8 g     F .text	00000194 __floatunsidf
020073c0 g     F .text	00000060 __mcmp
0200fad8 g     F .text	000000c8 altera_avalon_uart_init
02012654 g     O .rwdata	00000004 __ctype_ptr
02005680 g     F .text	00000018 __fp_lock_all
0201076c g     F .text	00000048 alt_ic_irq_enabled
02010cac g     F .text	00000098 alt_alarm_stop
0200a7d4 g     F .text	00000024 strtol
020131ac g     O .bss	00000004 alt_irq_active
020000ec g     F .exceptions	000000c8 alt_irq_handler
020123e8 g     O .rwdata	00000028 alt_dev_null
0200e528 g     F .text	000000c8 __unpack_f
02010390 g     F .text	00000044 alt_dcache_flush_all
0200728c g     F .text	00000070 __hi0bits
0200e07c g     F .text	000000d8 __fixdfsi
0200a574 g     F .text	0000001c strtod
02012698 g       *ABS*	00000000 __ram_rwdata_end
02012678 g     O .rwdata	00000008 alt_dev_list
0200f698 g     F .text	00000120 write
0200d044 g     F .text	00000078 __gtsf2
02011bac g       *ABS*	00000000 __ram_rodata_end
0200eec0 g     F .text	000000d4 fstat
0200defc g     F .text	00000088 __ledf2
02008018 g     F .text	00000120 __pow5mult
02013184 g     O .bss	00000004 __nlocale_changed
0200e4a0 g     F .text	00000008 __umodsi3
020002f0 g     F .text	00000034 _scanf_r
02013570 g       *ABS*	00000000 end
0200ebd8 g     F .text	00000160 __pack_f
02010168 g     F .text	000001c8 altera_avalon_uart_write
02011574 g       *ABS*	00000000 __CTOR_LIST__
04000000 g       *ABS*	00000000 __alt_stack_pointer
0200f950 g     F .text	00000090 alt_avalon_timer_sc_init
0200fa38 g     F .text	00000058 altera_avalon_uart_write_fd
0200e4a8 g     F .text	00000080 __clzsi2
0200fa90 g     F .text	00000048 altera_avalon_uart_close_fd
020055a4 g     F .text	00000004 __sfp_lock_acquire
02006f68 g     F .text	000000e4 memchr
020003c4 g     F .text	00001eac ___vfprintf_internal_r
02008c48 g     F .text	00000060 _sprintf_r
02005b74 g     F .text	00000314 _free_r
02011364 g     F .text	000001b0 __call_exitprocs
02013188 g     O .bss	00000004 __mlocale_changed
0201266c g     O .rwdata	00000004 __malloc_sbrk_base
020001b4 g     F .text	0000004c _start
020131b0 g     O .bss	00000004 _alt_tick_rate
0200a7f8 g     F .text	00000318 _strtoll_r
02007ba8 g     F .text	0000014c __lshift
020131b4 g     O .bss	00000004 _alt_nticks
0200f3fc g     F .text	00000120 read
0200f84c g     F .text	0000005c alt_sys_init
0201122c g     F .text	00000134 __register_exitproc
02007cf4 g     F .text	000001e8 __multiply
02011bac g       *ABS*	00000000 __ram_rwdata_start
02011578 g       *ABS*	00000000 __ram_rodata_start
020131b8 g     O .bss	00000028 __malloc_current_mallinfo
020078a0 g     F .text	0000017c __d2b
0200ab10 g     F .text	00000230 _strtoul_r
02011024 g     F .text	000000b8 alt_get_fd
0200eb10 g     F .text	000000c8 __fpcmp_parts_d
0200b414 g     F .text	00000070 _close_r
020111b8 g     F .text	00000074 memcmp
02013570 g       *ABS*	00000000 __alt_stack_base
02003a14 g     F .text	0000013c __swsetup_r
0200d9fc g     F .text	00000258 __divdf3
0200571c g     F .text	000000f0 __sfp
02007704 g     F .text	00000058 __copybits
02011fb8 g     O .rwdata	00000408 __malloc_av_
020055b0 g     F .text	00000004 __sinit_lock_release
0200d638 g     F .text	000003c4 __muldf3
02008d94 g     F .text	00000060 __sread
02005a08 g     F .text	00000040 fread
02010f04 g     F .text	00000120 alt_find_file
020103d4 g     F .text	000000b4 alt_dev_llist_insert
0200f3bc g     F .text	00000020 __malloc_lock
0200f5dc g     F .text	000000bc sbrk
0200531c g     F .text	000001fc _fflush_r
0200b360 g     F .text	000000b4 _calloc_r
02013184 g       *ABS*	00000000 __bss_start
020071cc g     F .text	00000098 memset
02000200 g     F .text	00000078 main
020131a8 g     O .bss	00000004 alt_envp
02013198 g     O .bss	00000004 __malloc_max_total_mem
0200d0bc g     F .text	00000078 __ltsf2
0200580c g     F .text	000001fc _fread_r
02008ca8 g     F .text	00000008 __sclose
04000000 g       *ABS*	00000000 __alt_heap_limit
0200b594 g     F .text	00000014 fclose
0200a590 g     F .text	00000244 _strtol_r
0200e154 g     F .text	00000074 __truncdfsf2
020133e0 g     O .bss	00000190 _atexit0
02003d68 g     F .text	000015b4 _dtoa_r
02006728 g     F .text	00000740 _malloc_r
02012684 g     O .rwdata	00000004 alt_errno
0200b054 g     F .text	000000dc __submore
020063ec g     F .text	000000b8 _fwalk
02006f28 g     F .text	00000040 _mbtowc_r
0200e3d8 g     F .text	00000060 __divsi3
02011a74 g     O .rodata	00000014 __thenan_df
02005a48 g     F .text	0000012c _malloc_trim_r
02011578 g       *ABS*	00000000 __CTOR_END__
02008df4 g     F .text	000000bc strcmp
02011578 g       *ABS*	00000000 __flash_rodata_start
02011578 g       *ABS*	00000000 __DTOR_LIST__
0200dcdc g     F .text	00000088 __nedf2
0200f818 g     F .text	00000034 alt_irq_init
0200f57c g     F .text	00000060 alt_release_fd
02008bd4 g     F .text	00000074 sprintf
02011a88 g     O .rodata	00000100 __clz_tab
0201318c g     O .bss	00000004 _PathLocale
0200a450 g     F .text	00000124 strtof
0201116c g     F .text	00000014 atexit
0200b2e8 g     F .text	00000078 _write_r
02006578 g     F .text	0000001c setlocale
02000324 g     F .text	00000048 scanf
02008bcc g     F .text	00000008 nanf
02012658 g     O .rwdata	00000004 _impure_ptr
020131a0 g     O .bss	00000004 alt_argc
02006e68 g     F .text	00000080 _mbrtowc_r
0201054c g     F .text	00000064 _do_dtors
0200884c g     F .text	000001c4 __srefill_r
02000000 g       *ABS*	00000000 __alt_mem_sdram_0
02000020 g       .exceptions	00000000 alt_irq_entry
02007420 g     F .text	00000080 __ulp
02008a2c g     F .text	00000040 __isinfd
02005668 g     F .text	00000018 __fp_unlock_all
02012670 g     O .rwdata	00000008 alt_fs_list
02000020 g       *ABS*	00000000 __ram_exceptions_start
020064e4 g     F .text	00000010 localeconv
020105e0 g     F .text	00000050 alt_ic_isr_register
0200b640 g     F .text	00000068 __hexdig_init
02012698 g       *ABS*	00000000 _edata
0200f9e0 g     F .text	00000058 altera_avalon_uart_read_fd
02013570 g       *ABS*	00000000 _end
020001b4 g       *ABS*	00000000 __ram_exceptions_end
020039a0 g     F .text	00000074 vfscanf
020106cc g     F .text	000000a0 alt_ic_irq_disable
02008d18 g     F .text	0000007c __swrite
02012668 g     O .rwdata	00000004 __malloc_trim_threshold
02010e50 g     F .text	00000020 altera_nios2_qsys_irq_init
02011180 g     F .text	00000038 exit
02006324 g     F .text	000000c8 _fwalk_reent
02007a1c g     F .text	0000018c __mdiff
0200e438 g     F .text	00000060 __modsi3
04000000 g       *ABS*	00000000 __alt_data_end
02000020 g     F .exceptions	00000000 alt_exception
020055a8 g     F .text	00000004 __sfp_lock_release
02008b0c g     F .text	000000c0 __sccl
02011624 g     O .rodata	00000101 _ctype_
0200fe78 g     F .text	00000060 altera_avalon_uart_close
0200e5f0 g     F .text	000000a8 __fpcmp_parts_f
02011554 g     F .text	00000020 _exit
02008a6c g     F .text	00000030 __isnand
0200c304 g     F .text	00000098 __muldi3
02006594 g     F .text	00000194 __smakebuf_r
02008eb0 g     F .text	00000074 strlen
02010ac4 g     F .text	00000188 open
0200ddec g     F .text	00000088 __gedf2
0200b758 g     F .text	000007b8 __gethex
020105b0 g     F .text	00000030 alt_icache_flush_all
0201268c g     O .rwdata	00000004 alt_priority_mask
02010630 g     F .text	0000009c alt_ic_irq_enable
02002270 g     F .text	00000024 __vfprintf_internal
0200fed8 g     F .text	00000230 altera_avalon_uart_read
0200d544 g     F .text	00000080 __subdf3
020072fc g     F .text	000000c4 __lo0bits
02002294 g     F .text	00001680 __svfscanf_r
02012690 g     O .rwdata	00000008 alt_alarm_list
0200b130 g     F .text	0000019c _ungetc_r
020104e8 g     F .text	00000064 _do_ctors
0200ed38 g     F .text	000000fc close
0200f114 g     F .text	00000080 alt_load
0200e6c4 g     F .text	00000314 __pack_d
00000000  w      *UND*	00000000 free
020055ac g     F .text	00000004 __sinit_lock_acquire
02007f18 g     F .text	00000100 __multadd
02007264 g     F .text	00000028 _Bfree



Disassembly of section .entry:

02000000 <__reset>:
#if NIOS2_ICACHE_SIZE > 0 && defined(ALT_ALLOW_CODE_AT_RESET) && !defined(ALT_SIM_OPTIMIZE)
    /* Assume the instruction cache size is always a power of two. */
#if NIOS2_ICACHE_SIZE > 0x8000
    movhi r2, %hi(NIOS2_ICACHE_SIZE)
#else
    movui r2, NIOS2_ICACHE_SIZE
 2000000:	00840014 	movui	r2,4096
#endif

0:
    initi r2
 2000004:	1001483a 	initi	r2
    addi r2, r2, -NIOS2_ICACHE_LINE_SIZE
 2000008:	10bff804 	addi	r2,r2,-32
    bgt r2, zero, 0b
 200000c:	00bffd16 	blt	zero,r2,2000004 <__reset+0x4>
 * Jump to the _start entry point in the .text section if reset code
 * is allowed or if optimizing for RTL simulation.
 */
#if defined(ALT_ALLOW_CODE_AT_RESET) || defined(ALT_SIM_OPTIMIZE)
    /* Jump to the _start entry point in the .text section. */
    movhi r1, %hi(_start)
 2000010:	00408034 	movhi	at,512
    ori r1, r1, %lo(_start)
 2000014:	08406d14 	ori	at,at,436
    jmp r1
 2000018:	0800683a 	jmp	at
 200001c:	00000000 	call	0 <__reset-0x2000000>

Disassembly of section .exceptions:

02000020 <alt_exception>:
         * Process an exception.  For all exceptions we must preserve all
         * caller saved registers on the stack (See the Nios2 ABI
         * documentation for details).
         */

        addi  sp, sp, -76
 2000020:	deffed04 	addi	sp,sp,-76

#endif

#endif

        stw   ra,  0(sp)
 2000024:	dfc00015 	stw	ra,0(sp)
        /*
         * Leave a gap in the stack frame at 4(sp) for the muldiv handler to
         * store zero into.
         */

        stw   r1,   8(sp)
 2000028:	d8400215 	stw	at,8(sp)
        stw   r2,  12(sp)
 200002c:	d8800315 	stw	r2,12(sp)
        stw   r3,  16(sp)
 2000030:	d8c00415 	stw	r3,16(sp)
        stw   r4,  20(sp)
 2000034:	d9000515 	stw	r4,20(sp)
        stw   r5,  24(sp)
 2000038:	d9400615 	stw	r5,24(sp)
        stw   r6,  28(sp)
 200003c:	d9800715 	stw	r6,28(sp)
        stw   r7,  32(sp)
 2000040:	d9c00815 	stw	r7,32(sp)

        rdctl r5, estatus
 2000044:	000b307a 	rdctl	r5,estatus

        stw   r8,  36(sp)
 2000048:	da000915 	stw	r8,36(sp)
        stw   r9,  40(sp)
 200004c:	da400a15 	stw	r9,40(sp)
        stw   r10, 44(sp)
 2000050:	da800b15 	stw	r10,44(sp)
        stw   r11, 48(sp)
 2000054:	dac00c15 	stw	r11,48(sp)
        stw   r12, 52(sp)
 2000058:	db000d15 	stw	r12,52(sp)
        stw   r13, 56(sp)
 200005c:	db400e15 	stw	r13,56(sp)
        stw   r14, 60(sp)
 2000060:	db800f15 	stw	r14,60(sp)
        stw   r15, 64(sp)
 2000064:	dbc01015 	stw	r15,64(sp)
        /*
         * ea-4 contains the address of the instruction being executed
         * when the exception occured. For interrupt exceptions, we will
         * will be re-issue the isntruction. Store it in 72(sp)
         */
        stw   r5,  68(sp)  /* estatus */
 2000068:	d9401115 	stw	r5,68(sp)
        addi  r15, ea, -4  /* instruction that caused exception */
 200006c:	ebffff04 	addi	r15,ea,-4
        stw   r15,  72(sp)
 2000070:	dbc01215 	stw	r15,72(sp)
#else
        /*
         * Test to see if the exception was a software exception or caused 
         * by an external interrupt, and vector accordingly.
         */
        rdctl r4, ipending
 2000074:	0009313a 	rdctl	r4,ipending
        andi  r2, r5, 1
 2000078:	2880004c 	andi	r2,r5,1
        beq   r2, zero, .Lnot_irq
 200007c:	10000326 	beq	r2,zero,200008c <alt_exception+0x6c>
        beq   r4, zero, .Lnot_irq
 2000080:	20000226 	beq	r4,zero,200008c <alt_exception+0x6c>
        /*
         * Now that all necessary registers have been preserved, call 
         * alt_irq_handler() to process the interrupts.
         */

        call alt_irq_handler
 2000084:	20000ec0 	call	20000ec <alt_irq_handler>

        .section .exceptions.irqreturn, "xa"

        br    .Lexception_exit
 2000088:	00000306 	br	2000098 <alt_exception+0x78>
         * upon completion, so we write ea (address of instruction *after*
         * the one where the exception occured) into 72(sp). The actual
         * instruction that caused the exception is written in r2, which these
         * handlers will utilize.
         */
        stw   ea,  72(sp)  /* Don't re-issue */
 200008c:	df401215 	stw	ea,72(sp)
        ldw   r2, -4(ea)   /* Instruction that caused exception */
 2000090:	e8bfff17 	ldw	r2,-4(ea)
#ifdef NIOS2_HAS_DEBUG_STUB
       /*
        *  Either tell the user now (if there is a debugger attached) or go into
        *  the debug monitor which will loop until a debugger is attached.
        */
        break
 2000094:	003da03a 	break	0
        /* 
         * Restore the saved registers, so that all general purpose registers 
         * have been restored to their state at the time the interrupt occured.
         */

        ldw   r5,  68(sp)
 2000098:	d9401117 	ldw	r5,68(sp)
        ldw   ea,  72(sp)  /* This becomes the PC once eret is executed */
 200009c:	df401217 	ldw	ea,72(sp)
        ldw   ra,   0(sp)
 20000a0:	dfc00017 	ldw	ra,0(sp)

        wrctl estatus, r5
 20000a4:	2801707a 	wrctl	estatus,r5

        ldw   r1,   8(sp)
 20000a8:	d8400217 	ldw	at,8(sp)
        ldw   r2,  12(sp)
 20000ac:	d8800317 	ldw	r2,12(sp)
        ldw   r3,  16(sp)
 20000b0:	d8c00417 	ldw	r3,16(sp)
        ldw   r4,  20(sp)
 20000b4:	d9000517 	ldw	r4,20(sp)
        ldw   r5,  24(sp)
 20000b8:	d9400617 	ldw	r5,24(sp)
        ldw   r6,  28(sp)
 20000bc:	d9800717 	ldw	r6,28(sp)
        ldw   r7,  32(sp)
 20000c0:	d9c00817 	ldw	r7,32(sp)
#ifdef ALT_STACK_CHECK
        ldw   et, %gprel(alt_exception_old_stack_limit)(gp)
#endif
#endif

        ldw   r8,  36(sp)
 20000c4:	da000917 	ldw	r8,36(sp)
        ldw   r9,  40(sp)
 20000c8:	da400a17 	ldw	r9,40(sp)
        ldw   r10, 44(sp)
 20000cc:	da800b17 	ldw	r10,44(sp)
        ldw   r11, 48(sp)
 20000d0:	dac00c17 	ldw	r11,48(sp)
        ldw   r12, 52(sp)
 20000d4:	db000d17 	ldw	r12,52(sp)
        ldw   r13, 56(sp)
 20000d8:	db400e17 	ldw	r13,56(sp)
        ldw   r14, 60(sp)
 20000dc:	db800f17 	ldw	r14,60(sp)
        ldw   r15, 64(sp)
 20000e0:	dbc01017 	ldw	r15,64(sp)
#endif

        ldw   sp,  76(sp)

#else
        addi  sp, sp, 76
 20000e4:	dec01304 	addi	sp,sp,76

        /*
         * Return to the interrupted instruction.
         */

        eret
 20000e8:	ef80083a 	eret

020000ec <alt_irq_handler>:
 * instruction is present if the macro ALT_CI_INTERRUPT_VECTOR defined.
 */

void alt_irq_handler (void) __attribute__ ((section (".exceptions")));
void alt_irq_handler (void)
{
 20000ec:	defff904 	addi	sp,sp,-28
 20000f0:	dfc00615 	stw	ra,24(sp)
 20000f4:	df000515 	stw	fp,20(sp)
 20000f8:	df000504 	addi	fp,sp,20
#ifndef NIOS2_EIC_PRESENT
static ALT_INLINE alt_u32 ALT_ALWAYS_INLINE alt_irq_pending (void)
{
  alt_u32 active;

  NIOS2_READ_IPENDING (active);
 20000fc:	0005313a 	rdctl	r2,ipending
 2000100:	e0bffc15 	stw	r2,-16(fp)

  return active;
 2000104:	e0bffc17 	ldw	r2,-16(fp)
   * Consider the case where the high priority interupt is asserted during
   * the interrupt entry sequence for a lower priority interrupt to see why
   * this is the case.
   */

  active = alt_irq_pending ();
 2000108:	e0bfff15 	stw	r2,-4(fp)

  do
  {
    i = 0;
 200010c:	e03ffd15 	stw	zero,-12(fp)
    mask = 1;
 2000110:	00800044 	movi	r2,1
 2000114:	e0bffe15 	stw	r2,-8(fp)
     * called to clear the interrupt condition.
     */

    do
    {
      if (active & mask)
 2000118:	e0ffff17 	ldw	r3,-4(fp)
 200011c:	e0bffe17 	ldw	r2,-8(fp)
 2000120:	1884703a 	and	r2,r3,r2
 2000124:	1005003a 	cmpeq	r2,r2,zero
 2000128:	1000161e 	bne	r2,zero,2000184 <alt_irq_handler+0x98>
      { 
#ifdef ALT_ENHANCED_INTERRUPT_API_PRESENT
        alt_irq[i].handler(alt_irq[i].context); 
 200012c:	e0bffd17 	ldw	r2,-12(fp)
 2000130:	00c08074 	movhi	r3,513
 2000134:	18ccb804 	addi	r3,r3,13024
 2000138:	100490fa 	slli	r2,r2,3
 200013c:	10c5883a 	add	r2,r2,r3
 2000140:	11400017 	ldw	r5,0(r2)
 2000144:	e0bffd17 	ldw	r2,-12(fp)
 2000148:	00c08074 	movhi	r3,513
 200014c:	18ccb804 	addi	r3,r3,13024
 2000150:	100490fa 	slli	r2,r2,3
 2000154:	10c5883a 	add	r2,r2,r3
 2000158:	10800104 	addi	r2,r2,4
 200015c:	11000017 	ldw	r4,0(r2)
 2000160:	283ee83a 	callr	r5
#ifndef NIOS2_EIC_PRESENT
static ALT_INLINE alt_u32 ALT_ALWAYS_INLINE alt_irq_pending (void)
{
  alt_u32 active;

  NIOS2_READ_IPENDING (active);
 2000164:	0005313a 	rdctl	r2,ipending
 2000168:	e0bffb15 	stw	r2,-20(fp)

  return active;
 200016c:	e0bffb17 	ldw	r2,-20(fp)
      mask <<= 1;
      i++;

    } while (1);

    active = alt_irq_pending ();
 2000170:	e0bfff15 	stw	r2,-4(fp)
    
  } while (active);
 2000174:	e0bfff17 	ldw	r2,-4(fp)
 2000178:	1004c03a 	cmpne	r2,r2,zero
 200017c:	103fe31e 	bne	r2,zero,200010c <alt_irq_handler+0x20>
 2000180:	00000706 	br	20001a0 <alt_irq_handler+0xb4>
#else
        alt_irq[i].handler(alt_irq[i].context, i); 
#endif
        break;
      }
      mask <<= 1;
 2000184:	e0bffe17 	ldw	r2,-8(fp)
 2000188:	1085883a 	add	r2,r2,r2
 200018c:	e0bffe15 	stw	r2,-8(fp)
      i++;
 2000190:	e0bffd17 	ldw	r2,-12(fp)
 2000194:	10800044 	addi	r2,r2,1
 2000198:	e0bffd15 	stw	r2,-12(fp)

    } while (1);
 200019c:	003fde06 	br	2000118 <alt_irq_handler+0x2c>
  /*
   * Notify the operating system that interrupt processing is complete.
   */ 

  ALT_OS_INT_EXIT();
}
 20001a0:	e037883a 	mov	sp,fp
 20001a4:	dfc00117 	ldw	ra,4(sp)
 20001a8:	df000017 	ldw	fp,0(sp)
 20001ac:	dec00204 	addi	sp,sp,8
 20001b0:	f800283a 	ret

Disassembly of section .text:

020001b4 <_start>:

    /* Assume the data cache size is always a power of two. */
#if NIOS2_DCACHE_SIZE > 0x8000
    movhi r2, %hi(NIOS2_DCACHE_SIZE)
#else
    movui r2, NIOS2_DCACHE_SIZE
 20001b4:	00880014 	movui	r2,8192
#endif

0:
    initd 0(r2)
 20001b8:	10000033 	initd	0(r2)
    addi r2, r2, -NIOS2_DCACHE_LINE_SIZE
 20001bc:	10bff804 	addi	r2,r2,-32
    bgt r2, zero, 0b
 20001c0:	00bffd16 	blt	zero,r2,20001b8 <_start+0x4>
#if (NIOS2_NUM_OF_SHADOW_REG_SETS == 0)    
    /*
     * Now that the caches are initialized, set up the stack pointer.
     * The value provided by the linker is assumed to be correctly aligned.
     */
    movhi sp, %hi(__alt_stack_pointer)
 20001c4:	06c10034 	movhi	sp,1024
    ori sp, sp, %lo(__alt_stack_pointer)
 20001c8:	dec00014 	ori	sp,sp,0

    /* Set up the global pointer. */
    movhi gp, %hi(_gp)
 20001cc:	06808074 	movhi	gp,513
    ori gp, gp, %lo(_gp)
 20001d0:	d6a99514 	ori	gp,gp,42580
 */
#ifndef ALT_SIM_OPTIMIZE
    /* Log that the BSS is about to be cleared. */
    ALT_LOG_PUTS(alt_log_msg_bss)

    movhi r2, %hi(__bss_start)
 20001d4:	00808074 	movhi	r2,513
    ori r2, r2, %lo(__bss_start)
 20001d8:	108c6114 	ori	r2,r2,12676

    movhi r3, %hi(__bss_end)
 20001dc:	00c08074 	movhi	r3,513
    ori r3, r3, %lo(__bss_end)
 20001e0:	18cd5c14 	ori	r3,r3,13680

    beq r2, r3, 1f
 20001e4:	10c00326 	beq	r2,r3,20001f4 <_start+0x40>

0:
    stw zero, (r2)
 20001e8:	10000015 	stw	zero,0(r2)
    addi r2, r2, 4
 20001ec:	10800104 	addi	r2,r2,4
    bltu r2, r3, 0b
 20001f0:	10fffd36 	bltu	r2,r3,20001e8 <_start+0x34>
     * section aren't defined until alt_load() has been called).
     */
    mov   et, zero
#endif

    call alt_load
 20001f4:	200f1140 	call	200f114 <alt_load>

    /* Log that alt_main is about to be called. */
    ALT_LOG_PUTS(alt_log_msg_alt_main)

    /* Call the C entry point. It should never return. */
    call alt_main
 20001f8:	200f3500 	call	200f350 <alt_main>

020001fc <alt_after_alt_main>:

    /* Wait in infinite loop in case alt_main does return. */
alt_after_alt_main:
    br alt_after_alt_main
 20001fc:	003fff06 	br	20001fc <alt_after_alt_main>

02000200 <main>:
#include <stdio.h>
#include "system.h"
#include "altera_avalon_pio_regs.h"

int main() {
 2000200:	deffef04 	addi	sp,sp,-68
 2000204:	dfc01015 	stw	ra,64(sp)
 2000208:	df000f15 	stw	fp,60(sp)
 200020c:	df000f04 	addi	fp,sp,60
	int data = 0;
 2000210:	e03ff215 	stw	zero,-56(fp)
	while (1) {
		int val = IORD(PIO_1_BASE, 0);
 2000214:	00810034 	movhi	r2,1024
 2000218:	10841004 	addi	r2,r2,4160
 200021c:	10800037 	ldwio	r2,0(r2)
 2000220:	e0bff115 	stw	r2,-60(fp)

		if(val & 1){
 2000224:	e0bff117 	ldw	r2,-60(fp)
 2000228:	1080004c 	andi	r2,r2,1
 200022c:	10803fcc 	andi	r2,r2,255
 2000230:	1005003a 	cmpeq	r2,r2,zero
 2000234:	1000031e 	bne	r2,zero,2000244 <main+0x44>
			data++;
 2000238:	e0bff217 	ldw	r2,-56(fp)
 200023c:	10800044 	addi	r2,r2,1
 2000240:	e0bff215 	stw	r2,-56(fp)
		}

		IOWR(PIO_0_BASE, 0, data);
 2000244:	00c10034 	movhi	r3,1024
 2000248:	18c41404 	addi	r3,r3,4176
 200024c:	e0bff217 	ldw	r2,-56(fp)
 2000250:	18800035 	stwio	r2,0(r3)

		char s[50];
		scanf("%s", s);
 2000254:	e17ff304 	addi	r5,fp,-52
 2000258:	01008074 	movhi	r4,513
 200025c:	21055e04 	addi	r4,r4,5496
 2000260:	20003240 	call	2000324 <scanf>
		printf("%s", s);
 2000264:	e17ff304 	addi	r5,fp,-52
 2000268:	01008074 	movhi	r4,513
 200026c:	21055e04 	addi	r4,r4,5496
 2000270:	20002780 	call	2000278 <printf>

	}
 2000274:	003fe706 	br	2000214 <main+0x14>

02000278 <printf>:
 2000278:	defffb04 	addi	sp,sp,-20
 200027c:	dfc00115 	stw	ra,4(sp)
 2000280:	d9400215 	stw	r5,8(sp)
 2000284:	d9800315 	stw	r6,12(sp)
 2000288:	d9c00415 	stw	r7,16(sp)
 200028c:	00808074 	movhi	r2,513
 2000290:	10899604 	addi	r2,r2,9816
 2000294:	10c00017 	ldw	r3,0(r2)
 2000298:	200b883a 	mov	r5,r4
 200029c:	d8800204 	addi	r2,sp,8
 20002a0:	19000217 	ldw	r4,8(r3)
 20002a4:	100d883a 	mov	r6,r2
 20002a8:	d8800015 	stw	r2,0(sp)
 20002ac:	20022700 	call	2002270 <__vfprintf_internal>
 20002b0:	dfc00117 	ldw	ra,4(sp)
 20002b4:	dec00504 	addi	sp,sp,20
 20002b8:	f800283a 	ret

020002bc <_printf_r>:
 20002bc:	defffc04 	addi	sp,sp,-16
 20002c0:	dfc00115 	stw	ra,4(sp)
 20002c4:	d9800215 	stw	r6,8(sp)
 20002c8:	d9c00315 	stw	r7,12(sp)
 20002cc:	280d883a 	mov	r6,r5
 20002d0:	21400217 	ldw	r5,8(r4)
 20002d4:	d8c00204 	addi	r3,sp,8
 20002d8:	180f883a 	mov	r7,r3
 20002dc:	d8c00015 	stw	r3,0(sp)
 20002e0:	20003c40 	call	20003c4 <___vfprintf_internal_r>
 20002e4:	dfc00117 	ldw	ra,4(sp)
 20002e8:	dec00404 	addi	sp,sp,16
 20002ec:	f800283a 	ret

020002f0 <_scanf_r>:
 20002f0:	defffc04 	addi	sp,sp,-16
 20002f4:	dfc00115 	stw	ra,4(sp)
 20002f8:	d9800215 	stw	r6,8(sp)
 20002fc:	d9c00315 	stw	r7,12(sp)
 2000300:	280d883a 	mov	r6,r5
 2000304:	21400117 	ldw	r5,4(r4)
 2000308:	d8c00204 	addi	r3,sp,8
 200030c:	180f883a 	mov	r7,r3
 2000310:	d8c00015 	stw	r3,0(sp)
 2000314:	20022940 	call	2002294 <__svfscanf_r>
 2000318:	dfc00117 	ldw	ra,4(sp)
 200031c:	dec00404 	addi	sp,sp,16
 2000320:	f800283a 	ret

02000324 <scanf>:
 2000324:	defffb04 	addi	sp,sp,-20
 2000328:	dfc00115 	stw	ra,4(sp)
 200032c:	d9400215 	stw	r5,8(sp)
 2000330:	d9800315 	stw	r6,12(sp)
 2000334:	d9c00415 	stw	r7,16(sp)
 2000338:	00808074 	movhi	r2,513
 200033c:	10899604 	addi	r2,r2,9816
 2000340:	11400017 	ldw	r5,0(r2)
 2000344:	200d883a 	mov	r6,r4
 2000348:	d8800204 	addi	r2,sp,8
 200034c:	2809883a 	mov	r4,r5
 2000350:	29400117 	ldw	r5,4(r5)
 2000354:	100f883a 	mov	r7,r2
 2000358:	d8800015 	stw	r2,0(sp)
 200035c:	20022940 	call	2002294 <__svfscanf_r>
 2000360:	dfc00117 	ldw	ra,4(sp)
 2000364:	dec00504 	addi	sp,sp,20
 2000368:	f800283a 	ret

0200036c <__sprint_r>:
 200036c:	30800217 	ldw	r2,8(r6)
 2000370:	defffe04 	addi	sp,sp,-8
 2000374:	dc000015 	stw	r16,0(sp)
 2000378:	dfc00115 	stw	ra,4(sp)
 200037c:	3021883a 	mov	r16,r6
 2000380:	0007883a 	mov	r3,zero
 2000384:	1000061e 	bne	r2,zero,20003a0 <__sprint_r+0x34>
 2000388:	1805883a 	mov	r2,r3
 200038c:	30000115 	stw	zero,4(r6)
 2000390:	dfc00117 	ldw	ra,4(sp)
 2000394:	dc000017 	ldw	r16,0(sp)
 2000398:	dec00204 	addi	sp,sp,8
 200039c:	f800283a 	ret
 20003a0:	2005e880 	call	2005e88 <__sfvwrite_r>
 20003a4:	1007883a 	mov	r3,r2
 20003a8:	1805883a 	mov	r2,r3
 20003ac:	80000115 	stw	zero,4(r16)
 20003b0:	80000215 	stw	zero,8(r16)
 20003b4:	dfc00117 	ldw	ra,4(sp)
 20003b8:	dc000017 	ldw	r16,0(sp)
 20003bc:	dec00204 	addi	sp,sp,8
 20003c0:	f800283a 	ret

020003c4 <___vfprintf_internal_r>:
 20003c4:	defea404 	addi	sp,sp,-1392
 20003c8:	dd815815 	stw	r22,1376(sp)
 20003cc:	dc015215 	stw	r16,1352(sp)
 20003d0:	d9c15115 	stw	r7,1348(sp)
 20003d4:	dfc15b15 	stw	ra,1388(sp)
 20003d8:	df015a15 	stw	fp,1384(sp)
 20003dc:	ddc15915 	stw	r23,1380(sp)
 20003e0:	dd415715 	stw	r21,1372(sp)
 20003e4:	dd015615 	stw	r20,1368(sp)
 20003e8:	dcc15515 	stw	r19,1364(sp)
 20003ec:	dc815415 	stw	r18,1360(sp)
 20003f0:	dc415315 	stw	r17,1356(sp)
 20003f4:	282d883a 	mov	r22,r5
 20003f8:	3021883a 	mov	r16,r6
 20003fc:	d9014f15 	stw	r4,1340(sp)
 2000400:	20064d80 	call	20064d8 <_localeconv_r>
 2000404:	10800017 	ldw	r2,0(r2)
 2000408:	d9c15117 	ldw	r7,1348(sp)
 200040c:	d8814915 	stw	r2,1316(sp)
 2000410:	d8814f17 	ldw	r2,1340(sp)
 2000414:	10000226 	beq	r2,zero,2000420 <___vfprintf_internal_r+0x5c>
 2000418:	10800e17 	ldw	r2,56(r2)
 200041c:	10020d26 	beq	r2,zero,2000c54 <___vfprintf_internal_r+0x890>
 2000420:	b080030b 	ldhu	r2,12(r22)
 2000424:	1080020c 	andi	r2,r2,8
 2000428:	10020e26 	beq	r2,zero,2000c64 <___vfprintf_internal_r+0x8a0>
 200042c:	b0800417 	ldw	r2,16(r22)
 2000430:	10020c26 	beq	r2,zero,2000c64 <___vfprintf_internal_r+0x8a0>
 2000434:	b200030b 	ldhu	r8,12(r22)
 2000438:	00800284 	movi	r2,10
 200043c:	40c0068c 	andi	r3,r8,26
 2000440:	18802f1e 	bne	r3,r2,2000500 <___vfprintf_internal_r+0x13c>
 2000444:	b080038f 	ldh	r2,14(r22)
 2000448:	10002d16 	blt	r2,zero,2000500 <___vfprintf_internal_r+0x13c>
 200044c:	b240038b 	ldhu	r9,14(r22)
 2000450:	b2800717 	ldw	r10,28(r22)
 2000454:	b2c00917 	ldw	r11,36(r22)
 2000458:	d9014f17 	ldw	r4,1340(sp)
 200045c:	dc402904 	addi	r17,sp,164
 2000460:	d8804004 	addi	r2,sp,256
 2000464:	00c10004 	movi	r3,1024
 2000468:	423fff4c 	andi	r8,r8,65533
 200046c:	800d883a 	mov	r6,r16
 2000470:	880b883a 	mov	r5,r17
 2000474:	da002c0d 	sth	r8,176(sp)
 2000478:	da402c8d 	sth	r9,178(sp)
 200047c:	da803015 	stw	r10,192(sp)
 2000480:	dac03215 	stw	r11,200(sp)
 2000484:	d8802d15 	stw	r2,180(sp)
 2000488:	d8c02e15 	stw	r3,184(sp)
 200048c:	d8802915 	stw	r2,164(sp)
 2000490:	d8c02b15 	stw	r3,172(sp)
 2000494:	d8002f15 	stw	zero,188(sp)
 2000498:	20003c40 	call	20003c4 <___vfprintf_internal_r>
 200049c:	d8814b15 	stw	r2,1324(sp)
 20004a0:	10000416 	blt	r2,zero,20004b4 <___vfprintf_internal_r+0xf0>
 20004a4:	d9014f17 	ldw	r4,1340(sp)
 20004a8:	880b883a 	mov	r5,r17
 20004ac:	200531c0 	call	200531c <_fflush_r>
 20004b0:	1002321e 	bne	r2,zero,2000d7c <___vfprintf_internal_r+0x9b8>
 20004b4:	d8802c0b 	ldhu	r2,176(sp)
 20004b8:	1080100c 	andi	r2,r2,64
 20004bc:	10000326 	beq	r2,zero,20004cc <___vfprintf_internal_r+0x108>
 20004c0:	b080030b 	ldhu	r2,12(r22)
 20004c4:	10801014 	ori	r2,r2,64
 20004c8:	b080030d 	sth	r2,12(r22)
 20004cc:	d8814b17 	ldw	r2,1324(sp)
 20004d0:	dfc15b17 	ldw	ra,1388(sp)
 20004d4:	df015a17 	ldw	fp,1384(sp)
 20004d8:	ddc15917 	ldw	r23,1380(sp)
 20004dc:	dd815817 	ldw	r22,1376(sp)
 20004e0:	dd415717 	ldw	r21,1372(sp)
 20004e4:	dd015617 	ldw	r20,1368(sp)
 20004e8:	dcc15517 	ldw	r19,1364(sp)
 20004ec:	dc815417 	ldw	r18,1360(sp)
 20004f0:	dc415317 	ldw	r17,1356(sp)
 20004f4:	dc015217 	ldw	r16,1352(sp)
 20004f8:	dec15c04 	addi	sp,sp,1392
 20004fc:	f800283a 	ret
 2000500:	0005883a 	mov	r2,zero
 2000504:	0007883a 	mov	r3,zero
 2000508:	dd401904 	addi	r21,sp,100
 200050c:	d8814215 	stw	r2,1288(sp)
 2000510:	802f883a 	mov	r23,r16
 2000514:	d8c14315 	stw	r3,1292(sp)
 2000518:	d8014b15 	stw	zero,1324(sp)
 200051c:	d8014815 	stw	zero,1312(sp)
 2000520:	d8014415 	stw	zero,1296(sp)
 2000524:	d8014715 	stw	zero,1308(sp)
 2000528:	dd400c15 	stw	r21,48(sp)
 200052c:	d8000e15 	stw	zero,56(sp)
 2000530:	d8000d15 	stw	zero,52(sp)
 2000534:	b8800007 	ldb	r2,0(r23)
 2000538:	10001926 	beq	r2,zero,20005a0 <___vfprintf_internal_r+0x1dc>
 200053c:	00c00944 	movi	r3,37
 2000540:	10c01726 	beq	r2,r3,20005a0 <___vfprintf_internal_r+0x1dc>
 2000544:	b821883a 	mov	r16,r23
 2000548:	00000106 	br	2000550 <___vfprintf_internal_r+0x18c>
 200054c:	10c00326 	beq	r2,r3,200055c <___vfprintf_internal_r+0x198>
 2000550:	84000044 	addi	r16,r16,1
 2000554:	80800007 	ldb	r2,0(r16)
 2000558:	103ffc1e 	bne	r2,zero,200054c <___vfprintf_internal_r+0x188>
 200055c:	85e7c83a 	sub	r19,r16,r23
 2000560:	98000e26 	beq	r19,zero,200059c <___vfprintf_internal_r+0x1d8>
 2000564:	dc800e17 	ldw	r18,56(sp)
 2000568:	dc400d17 	ldw	r17,52(sp)
 200056c:	008001c4 	movi	r2,7
 2000570:	94e5883a 	add	r18,r18,r19
 2000574:	8c400044 	addi	r17,r17,1
 2000578:	adc00015 	stw	r23,0(r21)
 200057c:	dc800e15 	stw	r18,56(sp)
 2000580:	acc00115 	stw	r19,4(r21)
 2000584:	dc400d15 	stw	r17,52(sp)
 2000588:	14428b16 	blt	r2,r17,2000fb8 <___vfprintf_internal_r+0xbf4>
 200058c:	ad400204 	addi	r21,r21,8
 2000590:	d9014b17 	ldw	r4,1324(sp)
 2000594:	24c9883a 	add	r4,r4,r19
 2000598:	d9014b15 	stw	r4,1324(sp)
 200059c:	802f883a 	mov	r23,r16
 20005a0:	b8800007 	ldb	r2,0(r23)
 20005a4:	10013c26 	beq	r2,zero,2000a98 <___vfprintf_internal_r+0x6d4>
 20005a8:	bdc00044 	addi	r23,r23,1
 20005ac:	d8000405 	stb	zero,16(sp)
 20005b0:	b8c00007 	ldb	r3,0(r23)
 20005b4:	04ffffc4 	movi	r19,-1
 20005b8:	d8014c15 	stw	zero,1328(sp)
 20005bc:	d8014a15 	stw	zero,1320(sp)
 20005c0:	d8c14d15 	stw	r3,1332(sp)
 20005c4:	bdc00044 	addi	r23,r23,1
 20005c8:	d9414d17 	ldw	r5,1332(sp)
 20005cc:	00801604 	movi	r2,88
 20005d0:	28fff804 	addi	r3,r5,-32
 20005d4:	10c06036 	bltu	r2,r3,2000758 <___vfprintf_internal_r+0x394>
 20005d8:	18c5883a 	add	r2,r3,r3
 20005dc:	1085883a 	add	r2,r2,r2
 20005e0:	00c08034 	movhi	r3,512
 20005e4:	18c17d04 	addi	r3,r3,1524
 20005e8:	10c5883a 	add	r2,r2,r3
 20005ec:	11000017 	ldw	r4,0(r2)
 20005f0:	2000683a 	jmp	r4
 20005f4:	02001568 	cmpgeui	r8,zero,85
 20005f8:	02000758 	cmpnei	r8,zero,29
 20005fc:	02000758 	cmpnei	r8,zero,29
 2000600:	02001554 	movui	r8,85
 2000604:	02000758 	cmpnei	r8,zero,29
 2000608:	02000758 	cmpnei	r8,zero,29
 200060c:	02000758 	cmpnei	r8,zero,29
 2000610:	02000758 	cmpnei	r8,zero,29
 2000614:	02000758 	cmpnei	r8,zero,29
 2000618:	02000758 	cmpnei	r8,zero,29
 200061c:	02001334 	movhi	r8,76
 2000620:	02001544 	movi	r8,85
 2000624:	02000758 	cmpnei	r8,zero,29
 2000628:	0200134c 	andi	r8,zero,77
 200062c:	020015e0 	cmpeqi	r8,zero,87
 2000630:	02000758 	cmpnei	r8,zero,29
 2000634:	020015cc 	andi	r8,zero,87
 2000638:	02001594 	movui	r8,86
 200063c:	02001594 	movui	r8,86
 2000640:	02001594 	movui	r8,86
 2000644:	02001594 	movui	r8,86
 2000648:	02001594 	movui	r8,86
 200064c:	02001594 	movui	r8,86
 2000650:	02001594 	movui	r8,86
 2000654:	02001594 	movui	r8,86
 2000658:	02001594 	movui	r8,86
 200065c:	02000758 	cmpnei	r8,zero,29
 2000660:	02000758 	cmpnei	r8,zero,29
 2000664:	02000758 	cmpnei	r8,zero,29
 2000668:	02000758 	cmpnei	r8,zero,29
 200066c:	02000758 	cmpnei	r8,zero,29
 2000670:	02000758 	cmpnei	r8,zero,29
 2000674:	02000758 	cmpnei	r8,zero,29
 2000678:	02000758 	cmpnei	r8,zero,29
 200067c:	02000758 	cmpnei	r8,zero,29
 2000680:	02000758 	cmpnei	r8,zero,29
 2000684:	02000db0 	cmpltui	r8,zero,54
 2000688:	0200141c 	xori	r8,zero,80
 200068c:	02000758 	cmpnei	r8,zero,29
 2000690:	0200141c 	xori	r8,zero,80
 2000694:	02000758 	cmpnei	r8,zero,29
 2000698:	02000758 	cmpnei	r8,zero,29
 200069c:	02000758 	cmpnei	r8,zero,29
 20006a0:	02000758 	cmpnei	r8,zero,29
 20006a4:	02001580 	call	200158 <__reset-0x1dffea8>
 20006a8:	02000758 	cmpnei	r8,zero,29
 20006ac:	02000758 	cmpnei	r8,zero,29
 20006b0:	02000e64 	muli	r8,zero,57
 20006b4:	02000758 	cmpnei	r8,zero,29
 20006b8:	02000758 	cmpnei	r8,zero,29
 20006bc:	02000758 	cmpnei	r8,zero,29
 20006c0:	02000758 	cmpnei	r8,zero,29
 20006c4:	02000758 	cmpnei	r8,zero,29
 20006c8:	02000eb0 	cmpltui	r8,zero,58
 20006cc:	02000758 	cmpnei	r8,zero,29
 20006d0:	02000758 	cmpnei	r8,zero,29
 20006d4:	020014d0 	cmplti	r8,zero,83
 20006d8:	02000758 	cmpnei	r8,zero,29
 20006dc:	02000758 	cmpnei	r8,zero,29
 20006e0:	02000758 	cmpnei	r8,zero,29
 20006e4:	02000758 	cmpnei	r8,zero,29
 20006e8:	02000758 	cmpnei	r8,zero,29
 20006ec:	02000758 	cmpnei	r8,zero,29
 20006f0:	02000758 	cmpnei	r8,zero,29
 20006f4:	02000758 	cmpnei	r8,zero,29
 20006f8:	02000758 	cmpnei	r8,zero,29
 20006fc:	02000758 	cmpnei	r8,zero,29
 2000700:	020014a4 	muli	r8,zero,82
 2000704:	02000dbc 	xorhi	r8,zero,54
 2000708:	0200141c 	xori	r8,zero,80
 200070c:	0200141c 	xori	r8,zero,80
 2000710:	0200141c 	xori	r8,zero,80
 2000714:	02001408 	cmpgei	r8,zero,80
 2000718:	02000dbc 	xorhi	r8,zero,54
 200071c:	02000758 	cmpnei	r8,zero,29
 2000720:	02000758 	cmpnei	r8,zero,29
 2000724:	02001390 	cmplti	r8,zero,78
 2000728:	02000758 	cmpnei	r8,zero,29
 200072c:	02001360 	cmpeqi	r8,zero,77
 2000730:	02000e70 	cmpltui	r8,zero,57
 2000734:	020013c0 	call	20013c <__reset-0x1dffec4>
 2000738:	020013ac 	andhi	r8,zero,78
 200073c:	02000758 	cmpnei	r8,zero,29
 2000740:	0200163c 	xorhi	r8,zero,88
 2000744:	02000758 	cmpnei	r8,zero,29
 2000748:	02000ebc 	xorhi	r8,zero,58
 200074c:	02000758 	cmpnei	r8,zero,29
 2000750:	02000758 	cmpnei	r8,zero,29
 2000754:	02001534 	movhi	r8,84
 2000758:	d9014d17 	ldw	r4,1332(sp)
 200075c:	2000ce26 	beq	r4,zero,2000a98 <___vfprintf_internal_r+0x6d4>
 2000760:	01400044 	movi	r5,1
 2000764:	d9800f04 	addi	r6,sp,60
 2000768:	d9c14015 	stw	r7,1280(sp)
 200076c:	d9414515 	stw	r5,1300(sp)
 2000770:	d9814115 	stw	r6,1284(sp)
 2000774:	280f883a 	mov	r7,r5
 2000778:	d9000f05 	stb	r4,60(sp)
 200077c:	d8000405 	stb	zero,16(sp)
 2000780:	d8014615 	stw	zero,1304(sp)
 2000784:	d8c14c17 	ldw	r3,1328(sp)
 2000788:	1880008c 	andi	r2,r3,2
 200078c:	1005003a 	cmpeq	r2,r2,zero
 2000790:	d8815015 	stw	r2,1344(sp)
 2000794:	1000031e 	bne	r2,zero,20007a4 <___vfprintf_internal_r+0x3e0>
 2000798:	d9014517 	ldw	r4,1300(sp)
 200079c:	21000084 	addi	r4,r4,2
 20007a0:	d9014515 	stw	r4,1300(sp)
 20007a4:	d9414c17 	ldw	r5,1328(sp)
 20007a8:	2940210c 	andi	r5,r5,132
 20007ac:	d9414e15 	stw	r5,1336(sp)
 20007b0:	28002d1e 	bne	r5,zero,2000868 <___vfprintf_internal_r+0x4a4>
 20007b4:	d9814a17 	ldw	r6,1320(sp)
 20007b8:	d8814517 	ldw	r2,1300(sp)
 20007bc:	30a1c83a 	sub	r16,r6,r2
 20007c0:	0400290e 	bge	zero,r16,2000868 <___vfprintf_internal_r+0x4a4>
 20007c4:	00800404 	movi	r2,16
 20007c8:	1404580e 	bge	r2,r16,200192c <___vfprintf_internal_r+0x1568>
 20007cc:	dc800e17 	ldw	r18,56(sp)
 20007d0:	dc400d17 	ldw	r17,52(sp)
 20007d4:	1027883a 	mov	r19,r2
 20007d8:	07008074 	movhi	fp,513
 20007dc:	e7057a84 	addi	fp,fp,5610
 20007e0:	050001c4 	movi	r20,7
 20007e4:	00000306 	br	20007f4 <___vfprintf_internal_r+0x430>
 20007e8:	843ffc04 	addi	r16,r16,-16
 20007ec:	ad400204 	addi	r21,r21,8
 20007f0:	9c00130e 	bge	r19,r16,2000840 <___vfprintf_internal_r+0x47c>
 20007f4:	94800404 	addi	r18,r18,16
 20007f8:	8c400044 	addi	r17,r17,1
 20007fc:	af000015 	stw	fp,0(r21)
 2000800:	acc00115 	stw	r19,4(r21)
 2000804:	dc800e15 	stw	r18,56(sp)
 2000808:	dc400d15 	stw	r17,52(sp)
 200080c:	a47ff60e 	bge	r20,r17,20007e8 <___vfprintf_internal_r+0x424>
 2000810:	d9014f17 	ldw	r4,1340(sp)
 2000814:	b00b883a 	mov	r5,r22
 2000818:	d9800c04 	addi	r6,sp,48
 200081c:	d9c15115 	stw	r7,1348(sp)
 2000820:	200036c0 	call	200036c <__sprint_r>
 2000824:	d9c15117 	ldw	r7,1348(sp)
 2000828:	10009e1e 	bne	r2,zero,2000aa4 <___vfprintf_internal_r+0x6e0>
 200082c:	843ffc04 	addi	r16,r16,-16
 2000830:	dc800e17 	ldw	r18,56(sp)
 2000834:	dc400d17 	ldw	r17,52(sp)
 2000838:	dd401904 	addi	r21,sp,100
 200083c:	9c3fed16 	blt	r19,r16,20007f4 <___vfprintf_internal_r+0x430>
 2000840:	9425883a 	add	r18,r18,r16
 2000844:	8c400044 	addi	r17,r17,1
 2000848:	008001c4 	movi	r2,7
 200084c:	af000015 	stw	fp,0(r21)
 2000850:	ac000115 	stw	r16,4(r21)
 2000854:	dc800e15 	stw	r18,56(sp)
 2000858:	dc400d15 	stw	r17,52(sp)
 200085c:	1441f516 	blt	r2,r17,2001034 <___vfprintf_internal_r+0xc70>
 2000860:	ad400204 	addi	r21,r21,8
 2000864:	00000206 	br	2000870 <___vfprintf_internal_r+0x4ac>
 2000868:	dc800e17 	ldw	r18,56(sp)
 200086c:	dc400d17 	ldw	r17,52(sp)
 2000870:	d8800407 	ldb	r2,16(sp)
 2000874:	10000b26 	beq	r2,zero,20008a4 <___vfprintf_internal_r+0x4e0>
 2000878:	00800044 	movi	r2,1
 200087c:	94800044 	addi	r18,r18,1
 2000880:	8c400044 	addi	r17,r17,1
 2000884:	a8800115 	stw	r2,4(r21)
 2000888:	d8c00404 	addi	r3,sp,16
 200088c:	008001c4 	movi	r2,7
 2000890:	a8c00015 	stw	r3,0(r21)
 2000894:	dc800e15 	stw	r18,56(sp)
 2000898:	dc400d15 	stw	r17,52(sp)
 200089c:	1441da16 	blt	r2,r17,2001008 <___vfprintf_internal_r+0xc44>
 20008a0:	ad400204 	addi	r21,r21,8
 20008a4:	d9015017 	ldw	r4,1344(sp)
 20008a8:	20000b1e 	bne	r4,zero,20008d8 <___vfprintf_internal_r+0x514>
 20008ac:	d8800444 	addi	r2,sp,17
 20008b0:	94800084 	addi	r18,r18,2
 20008b4:	8c400044 	addi	r17,r17,1
 20008b8:	a8800015 	stw	r2,0(r21)
 20008bc:	00c00084 	movi	r3,2
 20008c0:	008001c4 	movi	r2,7
 20008c4:	a8c00115 	stw	r3,4(r21)
 20008c8:	dc800e15 	stw	r18,56(sp)
 20008cc:	dc400d15 	stw	r17,52(sp)
 20008d0:	1441c216 	blt	r2,r17,2000fdc <___vfprintf_internal_r+0xc18>
 20008d4:	ad400204 	addi	r21,r21,8
 20008d8:	d9414e17 	ldw	r5,1336(sp)
 20008dc:	00802004 	movi	r2,128
 20008e0:	2880b126 	beq	r5,r2,2000ba8 <___vfprintf_internal_r+0x7e4>
 20008e4:	d8c14617 	ldw	r3,1304(sp)
 20008e8:	19e1c83a 	sub	r16,r3,r7
 20008ec:	0400260e 	bge	zero,r16,2000988 <___vfprintf_internal_r+0x5c4>
 20008f0:	00800404 	movi	r2,16
 20008f4:	1403c90e 	bge	r2,r16,200181c <___vfprintf_internal_r+0x1458>
 20008f8:	1027883a 	mov	r19,r2
 20008fc:	07008074 	movhi	fp,513
 2000900:	e7057684 	addi	fp,fp,5594
 2000904:	050001c4 	movi	r20,7
 2000908:	00000306 	br	2000918 <___vfprintf_internal_r+0x554>
 200090c:	843ffc04 	addi	r16,r16,-16
 2000910:	ad400204 	addi	r21,r21,8
 2000914:	9c00130e 	bge	r19,r16,2000964 <___vfprintf_internal_r+0x5a0>
 2000918:	94800404 	addi	r18,r18,16
 200091c:	8c400044 	addi	r17,r17,1
 2000920:	af000015 	stw	fp,0(r21)
 2000924:	acc00115 	stw	r19,4(r21)
 2000928:	dc800e15 	stw	r18,56(sp)
 200092c:	dc400d15 	stw	r17,52(sp)
 2000930:	a47ff60e 	bge	r20,r17,200090c <___vfprintf_internal_r+0x548>
 2000934:	d9014f17 	ldw	r4,1340(sp)
 2000938:	b00b883a 	mov	r5,r22
 200093c:	d9800c04 	addi	r6,sp,48
 2000940:	d9c15115 	stw	r7,1348(sp)
 2000944:	200036c0 	call	200036c <__sprint_r>
 2000948:	d9c15117 	ldw	r7,1348(sp)
 200094c:	1000551e 	bne	r2,zero,2000aa4 <___vfprintf_internal_r+0x6e0>
 2000950:	843ffc04 	addi	r16,r16,-16
 2000954:	dc800e17 	ldw	r18,56(sp)
 2000958:	dc400d17 	ldw	r17,52(sp)
 200095c:	dd401904 	addi	r21,sp,100
 2000960:	9c3fed16 	blt	r19,r16,2000918 <___vfprintf_internal_r+0x554>
 2000964:	9425883a 	add	r18,r18,r16
 2000968:	8c400044 	addi	r17,r17,1
 200096c:	008001c4 	movi	r2,7
 2000970:	af000015 	stw	fp,0(r21)
 2000974:	ac000115 	stw	r16,4(r21)
 2000978:	dc800e15 	stw	r18,56(sp)
 200097c:	dc400d15 	stw	r17,52(sp)
 2000980:	14418216 	blt	r2,r17,2000f8c <___vfprintf_internal_r+0xbc8>
 2000984:	ad400204 	addi	r21,r21,8
 2000988:	d9014c17 	ldw	r4,1328(sp)
 200098c:	2080400c 	andi	r2,r4,256
 2000990:	10004a1e 	bne	r2,zero,2000abc <___vfprintf_internal_r+0x6f8>
 2000994:	d9414117 	ldw	r5,1284(sp)
 2000998:	91e5883a 	add	r18,r18,r7
 200099c:	8c400044 	addi	r17,r17,1
 20009a0:	008001c4 	movi	r2,7
 20009a4:	a9400015 	stw	r5,0(r21)
 20009a8:	a9c00115 	stw	r7,4(r21)
 20009ac:	dc800e15 	stw	r18,56(sp)
 20009b0:	dc400d15 	stw	r17,52(sp)
 20009b4:	14416716 	blt	r2,r17,2000f54 <___vfprintf_internal_r+0xb90>
 20009b8:	a8c00204 	addi	r3,r21,8
 20009bc:	d9814c17 	ldw	r6,1328(sp)
 20009c0:	3080010c 	andi	r2,r6,4
 20009c4:	10002826 	beq	r2,zero,2000a68 <___vfprintf_internal_r+0x6a4>
 20009c8:	d8814a17 	ldw	r2,1320(sp)
 20009cc:	d9014517 	ldw	r4,1300(sp)
 20009d0:	1121c83a 	sub	r16,r2,r4
 20009d4:	0400240e 	bge	zero,r16,2000a68 <___vfprintf_internal_r+0x6a4>
 20009d8:	00800404 	movi	r2,16
 20009dc:	14044f0e 	bge	r2,r16,2001b1c <___vfprintf_internal_r+0x1758>
 20009e0:	dc400d17 	ldw	r17,52(sp)
 20009e4:	1027883a 	mov	r19,r2
 20009e8:	07008074 	movhi	fp,513
 20009ec:	e7057a84 	addi	fp,fp,5610
 20009f0:	050001c4 	movi	r20,7
 20009f4:	00000306 	br	2000a04 <___vfprintf_internal_r+0x640>
 20009f8:	843ffc04 	addi	r16,r16,-16
 20009fc:	18c00204 	addi	r3,r3,8
 2000a00:	9c00110e 	bge	r19,r16,2000a48 <___vfprintf_internal_r+0x684>
 2000a04:	94800404 	addi	r18,r18,16
 2000a08:	8c400044 	addi	r17,r17,1
 2000a0c:	1f000015 	stw	fp,0(r3)
 2000a10:	1cc00115 	stw	r19,4(r3)
 2000a14:	dc800e15 	stw	r18,56(sp)
 2000a18:	dc400d15 	stw	r17,52(sp)
 2000a1c:	a47ff60e 	bge	r20,r17,20009f8 <___vfprintf_internal_r+0x634>
 2000a20:	d9014f17 	ldw	r4,1340(sp)
 2000a24:	b00b883a 	mov	r5,r22
 2000a28:	d9800c04 	addi	r6,sp,48
 2000a2c:	200036c0 	call	200036c <__sprint_r>
 2000a30:	10001c1e 	bne	r2,zero,2000aa4 <___vfprintf_internal_r+0x6e0>
 2000a34:	843ffc04 	addi	r16,r16,-16
 2000a38:	dc800e17 	ldw	r18,56(sp)
 2000a3c:	dc400d17 	ldw	r17,52(sp)
 2000a40:	d8c01904 	addi	r3,sp,100
 2000a44:	9c3fef16 	blt	r19,r16,2000a04 <___vfprintf_internal_r+0x640>
 2000a48:	9425883a 	add	r18,r18,r16
 2000a4c:	8c400044 	addi	r17,r17,1
 2000a50:	008001c4 	movi	r2,7
 2000a54:	1f000015 	stw	fp,0(r3)
 2000a58:	1c000115 	stw	r16,4(r3)
 2000a5c:	dc800e15 	stw	r18,56(sp)
 2000a60:	dc400d15 	stw	r17,52(sp)
 2000a64:	1440cb16 	blt	r2,r17,2000d94 <___vfprintf_internal_r+0x9d0>
 2000a68:	d8814a17 	ldw	r2,1320(sp)
 2000a6c:	d9414517 	ldw	r5,1300(sp)
 2000a70:	1140010e 	bge	r2,r5,2000a78 <___vfprintf_internal_r+0x6b4>
 2000a74:	2805883a 	mov	r2,r5
 2000a78:	d9814b17 	ldw	r6,1324(sp)
 2000a7c:	308d883a 	add	r6,r6,r2
 2000a80:	d9814b15 	stw	r6,1324(sp)
 2000a84:	90013b1e 	bne	r18,zero,2000f74 <___vfprintf_internal_r+0xbb0>
 2000a88:	d9c14017 	ldw	r7,1280(sp)
 2000a8c:	dd401904 	addi	r21,sp,100
 2000a90:	d8000d15 	stw	zero,52(sp)
 2000a94:	003ea706 	br	2000534 <___vfprintf_internal_r+0x170>
 2000a98:	d8800e17 	ldw	r2,56(sp)
 2000a9c:	10053f1e 	bne	r2,zero,2001f9c <___vfprintf_internal_r+0x1bd8>
 2000aa0:	d8000d15 	stw	zero,52(sp)
 2000aa4:	b080030b 	ldhu	r2,12(r22)
 2000aa8:	1080100c 	andi	r2,r2,64
 2000aac:	103e8726 	beq	r2,zero,20004cc <___vfprintf_internal_r+0x108>
 2000ab0:	00bfffc4 	movi	r2,-1
 2000ab4:	d8814b15 	stw	r2,1324(sp)
 2000ab8:	003e8406 	br	20004cc <___vfprintf_internal_r+0x108>
 2000abc:	d9814d17 	ldw	r6,1332(sp)
 2000ac0:	00801944 	movi	r2,101
 2000ac4:	11806e16 	blt	r2,r6,2000c80 <___vfprintf_internal_r+0x8bc>
 2000ac8:	d9414717 	ldw	r5,1308(sp)
 2000acc:	00c00044 	movi	r3,1
 2000ad0:	1943430e 	bge	r3,r5,20017e0 <___vfprintf_internal_r+0x141c>
 2000ad4:	d8814117 	ldw	r2,1284(sp)
 2000ad8:	94800044 	addi	r18,r18,1
 2000adc:	8c400044 	addi	r17,r17,1
 2000ae0:	a8800015 	stw	r2,0(r21)
 2000ae4:	008001c4 	movi	r2,7
 2000ae8:	a8c00115 	stw	r3,4(r21)
 2000aec:	dc800e15 	stw	r18,56(sp)
 2000af0:	dc400d15 	stw	r17,52(sp)
 2000af4:	1441ca16 	blt	r2,r17,2001220 <___vfprintf_internal_r+0xe5c>
 2000af8:	a8c00204 	addi	r3,r21,8
 2000afc:	d9014917 	ldw	r4,1316(sp)
 2000b00:	00800044 	movi	r2,1
 2000b04:	94800044 	addi	r18,r18,1
 2000b08:	8c400044 	addi	r17,r17,1
 2000b0c:	18800115 	stw	r2,4(r3)
 2000b10:	008001c4 	movi	r2,7
 2000b14:	19000015 	stw	r4,0(r3)
 2000b18:	dc800e15 	stw	r18,56(sp)
 2000b1c:	dc400d15 	stw	r17,52(sp)
 2000b20:	1441b616 	blt	r2,r17,20011fc <___vfprintf_internal_r+0xe38>
 2000b24:	1cc00204 	addi	r19,r3,8
 2000b28:	d9014217 	ldw	r4,1288(sp)
 2000b2c:	d9414317 	ldw	r5,1292(sp)
 2000b30:	000d883a 	mov	r6,zero
 2000b34:	000f883a 	mov	r7,zero
 2000b38:	200dcdc0 	call	200dcdc <__nedf2>
 2000b3c:	10017426 	beq	r2,zero,2001110 <___vfprintf_internal_r+0xd4c>
 2000b40:	d9414717 	ldw	r5,1308(sp)
 2000b44:	d9814117 	ldw	r6,1284(sp)
 2000b48:	8c400044 	addi	r17,r17,1
 2000b4c:	2c85883a 	add	r2,r5,r18
 2000b50:	14bfffc4 	addi	r18,r2,-1
 2000b54:	28bfffc4 	addi	r2,r5,-1
 2000b58:	30c00044 	addi	r3,r6,1
 2000b5c:	98800115 	stw	r2,4(r19)
 2000b60:	008001c4 	movi	r2,7
 2000b64:	98c00015 	stw	r3,0(r19)
 2000b68:	dc800e15 	stw	r18,56(sp)
 2000b6c:	dc400d15 	stw	r17,52(sp)
 2000b70:	14418e16 	blt	r2,r17,20011ac <___vfprintf_internal_r+0xde8>
 2000b74:	9cc00204 	addi	r19,r19,8
 2000b78:	d9414817 	ldw	r5,1312(sp)
 2000b7c:	d8800804 	addi	r2,sp,32
 2000b80:	8c400044 	addi	r17,r17,1
 2000b84:	9165883a 	add	r18,r18,r5
 2000b88:	98800015 	stw	r2,0(r19)
 2000b8c:	008001c4 	movi	r2,7
 2000b90:	99400115 	stw	r5,4(r19)
 2000b94:	dc800e15 	stw	r18,56(sp)
 2000b98:	dc400d15 	stw	r17,52(sp)
 2000b9c:	1440ed16 	blt	r2,r17,2000f54 <___vfprintf_internal_r+0xb90>
 2000ba0:	98c00204 	addi	r3,r19,8
 2000ba4:	003f8506 	br	20009bc <___vfprintf_internal_r+0x5f8>
 2000ba8:	d9814a17 	ldw	r6,1320(sp)
 2000bac:	d8814517 	ldw	r2,1300(sp)
 2000bb0:	30a1c83a 	sub	r16,r6,r2
 2000bb4:	043f4b0e 	bge	zero,r16,20008e4 <___vfprintf_internal_r+0x520>
 2000bb8:	00800404 	movi	r2,16
 2000bbc:	1404340e 	bge	r2,r16,2001c90 <___vfprintf_internal_r+0x18cc>
 2000bc0:	1027883a 	mov	r19,r2
 2000bc4:	07008074 	movhi	fp,513
 2000bc8:	e7057684 	addi	fp,fp,5594
 2000bcc:	050001c4 	movi	r20,7
 2000bd0:	00000306 	br	2000be0 <___vfprintf_internal_r+0x81c>
 2000bd4:	843ffc04 	addi	r16,r16,-16
 2000bd8:	ad400204 	addi	r21,r21,8
 2000bdc:	9c00130e 	bge	r19,r16,2000c2c <___vfprintf_internal_r+0x868>
 2000be0:	94800404 	addi	r18,r18,16
 2000be4:	8c400044 	addi	r17,r17,1
 2000be8:	af000015 	stw	fp,0(r21)
 2000bec:	acc00115 	stw	r19,4(r21)
 2000bf0:	dc800e15 	stw	r18,56(sp)
 2000bf4:	dc400d15 	stw	r17,52(sp)
 2000bf8:	a47ff60e 	bge	r20,r17,2000bd4 <___vfprintf_internal_r+0x810>
 2000bfc:	d9014f17 	ldw	r4,1340(sp)
 2000c00:	b00b883a 	mov	r5,r22
 2000c04:	d9800c04 	addi	r6,sp,48
 2000c08:	d9c15115 	stw	r7,1348(sp)
 2000c0c:	200036c0 	call	200036c <__sprint_r>
 2000c10:	d9c15117 	ldw	r7,1348(sp)
 2000c14:	103fa31e 	bne	r2,zero,2000aa4 <___vfprintf_internal_r+0x6e0>
 2000c18:	843ffc04 	addi	r16,r16,-16
 2000c1c:	dc800e17 	ldw	r18,56(sp)
 2000c20:	dc400d17 	ldw	r17,52(sp)
 2000c24:	dd401904 	addi	r21,sp,100
 2000c28:	9c3fed16 	blt	r19,r16,2000be0 <___vfprintf_internal_r+0x81c>
 2000c2c:	9425883a 	add	r18,r18,r16
 2000c30:	8c400044 	addi	r17,r17,1
 2000c34:	008001c4 	movi	r2,7
 2000c38:	af000015 	stw	fp,0(r21)
 2000c3c:	ac000115 	stw	r16,4(r21)
 2000c40:	dc800e15 	stw	r18,56(sp)
 2000c44:	dc400d15 	stw	r17,52(sp)
 2000c48:	14416116 	blt	r2,r17,20011d0 <___vfprintf_internal_r+0xe0c>
 2000c4c:	ad400204 	addi	r21,r21,8
 2000c50:	003f2406 	br	20008e4 <___vfprintf_internal_r+0x520>
 2000c54:	d9014f17 	ldw	r4,1340(sp)
 2000c58:	20055b40 	call	20055b4 <__sinit>
 2000c5c:	d9c15117 	ldw	r7,1348(sp)
 2000c60:	003def06 	br	2000420 <___vfprintf_internal_r+0x5c>
 2000c64:	d9014f17 	ldw	r4,1340(sp)
 2000c68:	b00b883a 	mov	r5,r22
 2000c6c:	d9c15115 	stw	r7,1348(sp)
 2000c70:	2003a140 	call	2003a14 <__swsetup_r>
 2000c74:	d9c15117 	ldw	r7,1348(sp)
 2000c78:	103dee26 	beq	r2,zero,2000434 <___vfprintf_internal_r+0x70>
 2000c7c:	003f8c06 	br	2000ab0 <___vfprintf_internal_r+0x6ec>
 2000c80:	d9014217 	ldw	r4,1288(sp)
 2000c84:	d9414317 	ldw	r5,1292(sp)
 2000c88:	000d883a 	mov	r6,zero
 2000c8c:	000f883a 	mov	r7,zero
 2000c90:	200dc540 	call	200dc54 <__eqdf2>
 2000c94:	1000f21e 	bne	r2,zero,2001060 <___vfprintf_internal_r+0xc9c>
 2000c98:	00808074 	movhi	r2,513
 2000c9c:	10857604 	addi	r2,r2,5592
 2000ca0:	94800044 	addi	r18,r18,1
 2000ca4:	8c400044 	addi	r17,r17,1
 2000ca8:	a8800015 	stw	r2,0(r21)
 2000cac:	00c00044 	movi	r3,1
 2000cb0:	008001c4 	movi	r2,7
 2000cb4:	a8c00115 	stw	r3,4(r21)
 2000cb8:	dc800e15 	stw	r18,56(sp)
 2000cbc:	dc400d15 	stw	r17,52(sp)
 2000cc0:	1442fa16 	blt	r2,r17,20018ac <___vfprintf_internal_r+0x14e8>
 2000cc4:	a8c00204 	addi	r3,r21,8
 2000cc8:	d8800517 	ldw	r2,20(sp)
 2000ccc:	d9014717 	ldw	r4,1308(sp)
 2000cd0:	11015c0e 	bge	r2,r4,2001244 <___vfprintf_internal_r+0xe80>
 2000cd4:	dc400d17 	ldw	r17,52(sp)
 2000cd8:	d9814917 	ldw	r6,1316(sp)
 2000cdc:	00800044 	movi	r2,1
 2000ce0:	94800044 	addi	r18,r18,1
 2000ce4:	8c400044 	addi	r17,r17,1
 2000ce8:	18800115 	stw	r2,4(r3)
 2000cec:	008001c4 	movi	r2,7
 2000cf0:	19800015 	stw	r6,0(r3)
 2000cf4:	dc800e15 	stw	r18,56(sp)
 2000cf8:	dc400d15 	stw	r17,52(sp)
 2000cfc:	14431016 	blt	r2,r17,2001940 <___vfprintf_internal_r+0x157c>
 2000d00:	18c00204 	addi	r3,r3,8
 2000d04:	d8814717 	ldw	r2,1308(sp)
 2000d08:	143fffc4 	addi	r16,r2,-1
 2000d0c:	043f2b0e 	bge	zero,r16,20009bc <___vfprintf_internal_r+0x5f8>
 2000d10:	00800404 	movi	r2,16
 2000d14:	1402a20e 	bge	r2,r16,20017a0 <___vfprintf_internal_r+0x13dc>
 2000d18:	dc400d17 	ldw	r17,52(sp)
 2000d1c:	1027883a 	mov	r19,r2
 2000d20:	07008074 	movhi	fp,513
 2000d24:	e7057684 	addi	fp,fp,5594
 2000d28:	050001c4 	movi	r20,7
 2000d2c:	00000306 	br	2000d3c <___vfprintf_internal_r+0x978>
 2000d30:	18c00204 	addi	r3,r3,8
 2000d34:	843ffc04 	addi	r16,r16,-16
 2000d38:	9c029c0e 	bge	r19,r16,20017ac <___vfprintf_internal_r+0x13e8>
 2000d3c:	94800404 	addi	r18,r18,16
 2000d40:	8c400044 	addi	r17,r17,1
 2000d44:	1f000015 	stw	fp,0(r3)
 2000d48:	1cc00115 	stw	r19,4(r3)
 2000d4c:	dc800e15 	stw	r18,56(sp)
 2000d50:	dc400d15 	stw	r17,52(sp)
 2000d54:	a47ff60e 	bge	r20,r17,2000d30 <___vfprintf_internal_r+0x96c>
 2000d58:	d9014f17 	ldw	r4,1340(sp)
 2000d5c:	b00b883a 	mov	r5,r22
 2000d60:	d9800c04 	addi	r6,sp,48
 2000d64:	200036c0 	call	200036c <__sprint_r>
 2000d68:	103f4e1e 	bne	r2,zero,2000aa4 <___vfprintf_internal_r+0x6e0>
 2000d6c:	dc800e17 	ldw	r18,56(sp)
 2000d70:	dc400d17 	ldw	r17,52(sp)
 2000d74:	d8c01904 	addi	r3,sp,100
 2000d78:	003fee06 	br	2000d34 <___vfprintf_internal_r+0x970>
 2000d7c:	d8802c0b 	ldhu	r2,176(sp)
 2000d80:	00ffffc4 	movi	r3,-1
 2000d84:	d8c14b15 	stw	r3,1324(sp)
 2000d88:	1080100c 	andi	r2,r2,64
 2000d8c:	103dcc1e 	bne	r2,zero,20004c0 <___vfprintf_internal_r+0xfc>
 2000d90:	003dce06 	br	20004cc <___vfprintf_internal_r+0x108>
 2000d94:	d9014f17 	ldw	r4,1340(sp)
 2000d98:	b00b883a 	mov	r5,r22
 2000d9c:	d9800c04 	addi	r6,sp,48
 2000da0:	200036c0 	call	200036c <__sprint_r>
 2000da4:	103f3f1e 	bne	r2,zero,2000aa4 <___vfprintf_internal_r+0x6e0>
 2000da8:	dc800e17 	ldw	r18,56(sp)
 2000dac:	003f2e06 	br	2000a68 <___vfprintf_internal_r+0x6a4>
 2000db0:	d9414c17 	ldw	r5,1328(sp)
 2000db4:	29400414 	ori	r5,r5,16
 2000db8:	d9414c15 	stw	r5,1328(sp)
 2000dbc:	d9814c17 	ldw	r6,1328(sp)
 2000dc0:	3080080c 	andi	r2,r6,32
 2000dc4:	10014f1e 	bne	r2,zero,2001304 <___vfprintf_internal_r+0xf40>
 2000dc8:	d8c14c17 	ldw	r3,1328(sp)
 2000dcc:	1880040c 	andi	r2,r3,16
 2000dd0:	1002ea1e 	bne	r2,zero,200197c <___vfprintf_internal_r+0x15b8>
 2000dd4:	d9014c17 	ldw	r4,1328(sp)
 2000dd8:	2080100c 	andi	r2,r4,64
 2000ddc:	1002e726 	beq	r2,zero,200197c <___vfprintf_internal_r+0x15b8>
 2000de0:	3880000f 	ldh	r2,0(r7)
 2000de4:	39c00104 	addi	r7,r7,4
 2000de8:	d9c14015 	stw	r7,1280(sp)
 2000dec:	1023d7fa 	srai	r17,r2,31
 2000df0:	1021883a 	mov	r16,r2
 2000df4:	88037216 	blt	r17,zero,2001bc0 <___vfprintf_internal_r+0x17fc>
 2000df8:	01000044 	movi	r4,1
 2000dfc:	98000416 	blt	r19,zero,2000e10 <___vfprintf_internal_r+0xa4c>
 2000e00:	d8c14c17 	ldw	r3,1328(sp)
 2000e04:	00bfdfc4 	movi	r2,-129
 2000e08:	1886703a 	and	r3,r3,r2
 2000e0c:	d8c14c15 	stw	r3,1328(sp)
 2000e10:	8444b03a 	or	r2,r16,r17
 2000e14:	1002261e 	bne	r2,zero,20016b0 <___vfprintf_internal_r+0x12ec>
 2000e18:	9802251e 	bne	r19,zero,20016b0 <___vfprintf_internal_r+0x12ec>
 2000e1c:	20803fcc 	andi	r2,r4,255
 2000e20:	10029b26 	beq	r2,zero,2001890 <___vfprintf_internal_r+0x14cc>
 2000e24:	d8c01904 	addi	r3,sp,100
 2000e28:	dd000f04 	addi	r20,sp,60
 2000e2c:	d8c14115 	stw	r3,1284(sp)
 2000e30:	d8c14117 	ldw	r3,1284(sp)
 2000e34:	dcc14515 	stw	r19,1300(sp)
 2000e38:	a0c5c83a 	sub	r2,r20,r3
 2000e3c:	11c00a04 	addi	r7,r2,40
 2000e40:	99c0010e 	bge	r19,r7,2000e48 <___vfprintf_internal_r+0xa84>
 2000e44:	d9c14515 	stw	r7,1300(sp)
 2000e48:	dcc14615 	stw	r19,1304(sp)
 2000e4c:	d8800407 	ldb	r2,16(sp)
 2000e50:	103e4c26 	beq	r2,zero,2000784 <___vfprintf_internal_r+0x3c0>
 2000e54:	d8814517 	ldw	r2,1300(sp)
 2000e58:	10800044 	addi	r2,r2,1
 2000e5c:	d8814515 	stw	r2,1300(sp)
 2000e60:	003e4806 	br	2000784 <___vfprintf_internal_r+0x3c0>
 2000e64:	d9814c17 	ldw	r6,1328(sp)
 2000e68:	31800414 	ori	r6,r6,16
 2000e6c:	d9814c15 	stw	r6,1328(sp)
 2000e70:	d8c14c17 	ldw	r3,1328(sp)
 2000e74:	1880080c 	andi	r2,r3,32
 2000e78:	1001271e 	bne	r2,zero,2001318 <___vfprintf_internal_r+0xf54>
 2000e7c:	d9414c17 	ldw	r5,1328(sp)
 2000e80:	2880040c 	andi	r2,r5,16
 2000e84:	1002b61e 	bne	r2,zero,2001960 <___vfprintf_internal_r+0x159c>
 2000e88:	d9814c17 	ldw	r6,1328(sp)
 2000e8c:	3080100c 	andi	r2,r6,64
 2000e90:	1002b326 	beq	r2,zero,2001960 <___vfprintf_internal_r+0x159c>
 2000e94:	3c00000b 	ldhu	r16,0(r7)
 2000e98:	0009883a 	mov	r4,zero
 2000e9c:	39c00104 	addi	r7,r7,4
 2000ea0:	0023883a 	mov	r17,zero
 2000ea4:	d9c14015 	stw	r7,1280(sp)
 2000ea8:	d8000405 	stb	zero,16(sp)
 2000eac:	003fd306 	br	2000dfc <___vfprintf_internal_r+0xa38>
 2000eb0:	d9014c17 	ldw	r4,1328(sp)
 2000eb4:	21000414 	ori	r4,r4,16
 2000eb8:	d9014c15 	stw	r4,1328(sp)
 2000ebc:	d9414c17 	ldw	r5,1328(sp)
 2000ec0:	2880080c 	andi	r2,r5,32
 2000ec4:	1001081e 	bne	r2,zero,20012e8 <___vfprintf_internal_r+0xf24>
 2000ec8:	d8c14c17 	ldw	r3,1328(sp)
 2000ecc:	1880040c 	andi	r2,r3,16
 2000ed0:	1002b01e 	bne	r2,zero,2001994 <___vfprintf_internal_r+0x15d0>
 2000ed4:	d9014c17 	ldw	r4,1328(sp)
 2000ed8:	2080100c 	andi	r2,r4,64
 2000edc:	1002ad26 	beq	r2,zero,2001994 <___vfprintf_internal_r+0x15d0>
 2000ee0:	3c00000b 	ldhu	r16,0(r7)
 2000ee4:	01000044 	movi	r4,1
 2000ee8:	39c00104 	addi	r7,r7,4
 2000eec:	0023883a 	mov	r17,zero
 2000ef0:	d9c14015 	stw	r7,1280(sp)
 2000ef4:	d8000405 	stb	zero,16(sp)
 2000ef8:	003fc006 	br	2000dfc <___vfprintf_internal_r+0xa38>
 2000efc:	d9014f17 	ldw	r4,1340(sp)
 2000f00:	b00b883a 	mov	r5,r22
 2000f04:	d9800c04 	addi	r6,sp,48
 2000f08:	200036c0 	call	200036c <__sprint_r>
 2000f0c:	103ee51e 	bne	r2,zero,2000aa4 <___vfprintf_internal_r+0x6e0>
 2000f10:	dc800e17 	ldw	r18,56(sp)
 2000f14:	d8c01904 	addi	r3,sp,100
 2000f18:	d9814c17 	ldw	r6,1328(sp)
 2000f1c:	3080004c 	andi	r2,r6,1
 2000f20:	1005003a 	cmpeq	r2,r2,zero
 2000f24:	103ea51e 	bne	r2,zero,20009bc <___vfprintf_internal_r+0x5f8>
 2000f28:	00800044 	movi	r2,1
 2000f2c:	dc400d17 	ldw	r17,52(sp)
 2000f30:	18800115 	stw	r2,4(r3)
 2000f34:	d8814917 	ldw	r2,1316(sp)
 2000f38:	94800044 	addi	r18,r18,1
 2000f3c:	8c400044 	addi	r17,r17,1
 2000f40:	18800015 	stw	r2,0(r3)
 2000f44:	008001c4 	movi	r2,7
 2000f48:	dc800e15 	stw	r18,56(sp)
 2000f4c:	dc400d15 	stw	r17,52(sp)
 2000f50:	14421e0e 	bge	r2,r17,20017cc <___vfprintf_internal_r+0x1408>
 2000f54:	d9014f17 	ldw	r4,1340(sp)
 2000f58:	b00b883a 	mov	r5,r22
 2000f5c:	d9800c04 	addi	r6,sp,48
 2000f60:	200036c0 	call	200036c <__sprint_r>
 2000f64:	103ecf1e 	bne	r2,zero,2000aa4 <___vfprintf_internal_r+0x6e0>
 2000f68:	dc800e17 	ldw	r18,56(sp)
 2000f6c:	d8c01904 	addi	r3,sp,100
 2000f70:	003e9206 	br	20009bc <___vfprintf_internal_r+0x5f8>
 2000f74:	d9014f17 	ldw	r4,1340(sp)
 2000f78:	b00b883a 	mov	r5,r22
 2000f7c:	d9800c04 	addi	r6,sp,48
 2000f80:	200036c0 	call	200036c <__sprint_r>
 2000f84:	103ec026 	beq	r2,zero,2000a88 <___vfprintf_internal_r+0x6c4>
 2000f88:	003ec606 	br	2000aa4 <___vfprintf_internal_r+0x6e0>
 2000f8c:	d9014f17 	ldw	r4,1340(sp)
 2000f90:	b00b883a 	mov	r5,r22
 2000f94:	d9800c04 	addi	r6,sp,48
 2000f98:	d9c15115 	stw	r7,1348(sp)
 2000f9c:	200036c0 	call	200036c <__sprint_r>
 2000fa0:	d9c15117 	ldw	r7,1348(sp)
 2000fa4:	103ebf1e 	bne	r2,zero,2000aa4 <___vfprintf_internal_r+0x6e0>
 2000fa8:	dc800e17 	ldw	r18,56(sp)
 2000fac:	dc400d17 	ldw	r17,52(sp)
 2000fb0:	dd401904 	addi	r21,sp,100
 2000fb4:	003e7406 	br	2000988 <___vfprintf_internal_r+0x5c4>
 2000fb8:	d9014f17 	ldw	r4,1340(sp)
 2000fbc:	b00b883a 	mov	r5,r22
 2000fc0:	d9800c04 	addi	r6,sp,48
 2000fc4:	d9c15115 	stw	r7,1348(sp)
 2000fc8:	200036c0 	call	200036c <__sprint_r>
 2000fcc:	d9c15117 	ldw	r7,1348(sp)
 2000fd0:	103eb41e 	bne	r2,zero,2000aa4 <___vfprintf_internal_r+0x6e0>
 2000fd4:	dd401904 	addi	r21,sp,100
 2000fd8:	003d6d06 	br	2000590 <___vfprintf_internal_r+0x1cc>
 2000fdc:	d9014f17 	ldw	r4,1340(sp)
 2000fe0:	b00b883a 	mov	r5,r22
 2000fe4:	d9800c04 	addi	r6,sp,48
 2000fe8:	d9c15115 	stw	r7,1348(sp)
 2000fec:	200036c0 	call	200036c <__sprint_r>
 2000ff0:	d9c15117 	ldw	r7,1348(sp)
 2000ff4:	103eab1e 	bne	r2,zero,2000aa4 <___vfprintf_internal_r+0x6e0>
 2000ff8:	dc800e17 	ldw	r18,56(sp)
 2000ffc:	dc400d17 	ldw	r17,52(sp)
 2001000:	dd401904 	addi	r21,sp,100
 2001004:	003e3406 	br	20008d8 <___vfprintf_internal_r+0x514>
 2001008:	d9014f17 	ldw	r4,1340(sp)
 200100c:	b00b883a 	mov	r5,r22
 2001010:	d9800c04 	addi	r6,sp,48
 2001014:	d9c15115 	stw	r7,1348(sp)
 2001018:	200036c0 	call	200036c <__sprint_r>
 200101c:	d9c15117 	ldw	r7,1348(sp)
 2001020:	103ea01e 	bne	r2,zero,2000aa4 <___vfprintf_internal_r+0x6e0>
 2001024:	dc800e17 	ldw	r18,56(sp)
 2001028:	dc400d17 	ldw	r17,52(sp)
 200102c:	dd401904 	addi	r21,sp,100
 2001030:	003e1c06 	br	20008a4 <___vfprintf_internal_r+0x4e0>
 2001034:	d9014f17 	ldw	r4,1340(sp)
 2001038:	b00b883a 	mov	r5,r22
 200103c:	d9800c04 	addi	r6,sp,48
 2001040:	d9c15115 	stw	r7,1348(sp)
 2001044:	200036c0 	call	200036c <__sprint_r>
 2001048:	d9c15117 	ldw	r7,1348(sp)
 200104c:	103e951e 	bne	r2,zero,2000aa4 <___vfprintf_internal_r+0x6e0>
 2001050:	dc800e17 	ldw	r18,56(sp)
 2001054:	dc400d17 	ldw	r17,52(sp)
 2001058:	dd401904 	addi	r21,sp,100
 200105c:	003e0406 	br	2000870 <___vfprintf_internal_r+0x4ac>
 2001060:	d9000517 	ldw	r4,20(sp)
 2001064:	0102520e 	bge	zero,r4,20019b0 <___vfprintf_internal_r+0x15ec>
 2001068:	d9814717 	ldw	r6,1308(sp)
 200106c:	21807a16 	blt	r4,r6,2001258 <___vfprintf_internal_r+0xe94>
 2001070:	d8814117 	ldw	r2,1284(sp)
 2001074:	91a5883a 	add	r18,r18,r6
 2001078:	8c400044 	addi	r17,r17,1
 200107c:	a8800015 	stw	r2,0(r21)
 2001080:	008001c4 	movi	r2,7
 2001084:	a9800115 	stw	r6,4(r21)
 2001088:	dc800e15 	stw	r18,56(sp)
 200108c:	dc400d15 	stw	r17,52(sp)
 2001090:	1442f616 	blt	r2,r17,2001c6c <___vfprintf_internal_r+0x18a8>
 2001094:	a8c00204 	addi	r3,r21,8
 2001098:	d9414717 	ldw	r5,1308(sp)
 200109c:	2161c83a 	sub	r16,r4,r5
 20010a0:	043f9d0e 	bge	zero,r16,2000f18 <___vfprintf_internal_r+0xb54>
 20010a4:	00800404 	movi	r2,16
 20010a8:	1402130e 	bge	r2,r16,20018f8 <___vfprintf_internal_r+0x1534>
 20010ac:	dc400d17 	ldw	r17,52(sp)
 20010b0:	1027883a 	mov	r19,r2
 20010b4:	07008074 	movhi	fp,513
 20010b8:	e7057684 	addi	fp,fp,5594
 20010bc:	050001c4 	movi	r20,7
 20010c0:	00000306 	br	20010d0 <___vfprintf_internal_r+0xd0c>
 20010c4:	18c00204 	addi	r3,r3,8
 20010c8:	843ffc04 	addi	r16,r16,-16
 20010cc:	9c020d0e 	bge	r19,r16,2001904 <___vfprintf_internal_r+0x1540>
 20010d0:	94800404 	addi	r18,r18,16
 20010d4:	8c400044 	addi	r17,r17,1
 20010d8:	1f000015 	stw	fp,0(r3)
 20010dc:	1cc00115 	stw	r19,4(r3)
 20010e0:	dc800e15 	stw	r18,56(sp)
 20010e4:	dc400d15 	stw	r17,52(sp)
 20010e8:	a47ff60e 	bge	r20,r17,20010c4 <___vfprintf_internal_r+0xd00>
 20010ec:	d9014f17 	ldw	r4,1340(sp)
 20010f0:	b00b883a 	mov	r5,r22
 20010f4:	d9800c04 	addi	r6,sp,48
 20010f8:	200036c0 	call	200036c <__sprint_r>
 20010fc:	103e691e 	bne	r2,zero,2000aa4 <___vfprintf_internal_r+0x6e0>
 2001100:	dc800e17 	ldw	r18,56(sp)
 2001104:	dc400d17 	ldw	r17,52(sp)
 2001108:	d8c01904 	addi	r3,sp,100
 200110c:	003fee06 	br	20010c8 <___vfprintf_internal_r+0xd04>
 2001110:	d8814717 	ldw	r2,1308(sp)
 2001114:	143fffc4 	addi	r16,r2,-1
 2001118:	043e970e 	bge	zero,r16,2000b78 <___vfprintf_internal_r+0x7b4>
 200111c:	00800404 	movi	r2,16
 2001120:	1400180e 	bge	r2,r16,2001184 <___vfprintf_internal_r+0xdc0>
 2001124:	1029883a 	mov	r20,r2
 2001128:	07008074 	movhi	fp,513
 200112c:	e7057684 	addi	fp,fp,5594
 2001130:	054001c4 	movi	r21,7
 2001134:	00000306 	br	2001144 <___vfprintf_internal_r+0xd80>
 2001138:	9cc00204 	addi	r19,r19,8
 200113c:	843ffc04 	addi	r16,r16,-16
 2001140:	a400120e 	bge	r20,r16,200118c <___vfprintf_internal_r+0xdc8>
 2001144:	94800404 	addi	r18,r18,16
 2001148:	8c400044 	addi	r17,r17,1
 200114c:	9f000015 	stw	fp,0(r19)
 2001150:	9d000115 	stw	r20,4(r19)
 2001154:	dc800e15 	stw	r18,56(sp)
 2001158:	dc400d15 	stw	r17,52(sp)
 200115c:	ac7ff60e 	bge	r21,r17,2001138 <___vfprintf_internal_r+0xd74>
 2001160:	d9014f17 	ldw	r4,1340(sp)
 2001164:	b00b883a 	mov	r5,r22
 2001168:	d9800c04 	addi	r6,sp,48
 200116c:	200036c0 	call	200036c <__sprint_r>
 2001170:	103e4c1e 	bne	r2,zero,2000aa4 <___vfprintf_internal_r+0x6e0>
 2001174:	dc800e17 	ldw	r18,56(sp)
 2001178:	dc400d17 	ldw	r17,52(sp)
 200117c:	dcc01904 	addi	r19,sp,100
 2001180:	003fee06 	br	200113c <___vfprintf_internal_r+0xd78>
 2001184:	07008074 	movhi	fp,513
 2001188:	e7057684 	addi	fp,fp,5594
 200118c:	9425883a 	add	r18,r18,r16
 2001190:	8c400044 	addi	r17,r17,1
 2001194:	008001c4 	movi	r2,7
 2001198:	9f000015 	stw	fp,0(r19)
 200119c:	9c000115 	stw	r16,4(r19)
 20011a0:	dc800e15 	stw	r18,56(sp)
 20011a4:	dc400d15 	stw	r17,52(sp)
 20011a8:	147e720e 	bge	r2,r17,2000b74 <___vfprintf_internal_r+0x7b0>
 20011ac:	d9014f17 	ldw	r4,1340(sp)
 20011b0:	b00b883a 	mov	r5,r22
 20011b4:	d9800c04 	addi	r6,sp,48
 20011b8:	200036c0 	call	200036c <__sprint_r>
 20011bc:	103e391e 	bne	r2,zero,2000aa4 <___vfprintf_internal_r+0x6e0>
 20011c0:	dc800e17 	ldw	r18,56(sp)
 20011c4:	dc400d17 	ldw	r17,52(sp)
 20011c8:	dcc01904 	addi	r19,sp,100
 20011cc:	003e6a06 	br	2000b78 <___vfprintf_internal_r+0x7b4>
 20011d0:	d9014f17 	ldw	r4,1340(sp)
 20011d4:	b00b883a 	mov	r5,r22
 20011d8:	d9800c04 	addi	r6,sp,48
 20011dc:	d9c15115 	stw	r7,1348(sp)
 20011e0:	200036c0 	call	200036c <__sprint_r>
 20011e4:	d9c15117 	ldw	r7,1348(sp)
 20011e8:	103e2e1e 	bne	r2,zero,2000aa4 <___vfprintf_internal_r+0x6e0>
 20011ec:	dc800e17 	ldw	r18,56(sp)
 20011f0:	dc400d17 	ldw	r17,52(sp)
 20011f4:	dd401904 	addi	r21,sp,100
 20011f8:	003dba06 	br	20008e4 <___vfprintf_internal_r+0x520>
 20011fc:	d9014f17 	ldw	r4,1340(sp)
 2001200:	b00b883a 	mov	r5,r22
 2001204:	d9800c04 	addi	r6,sp,48
 2001208:	200036c0 	call	200036c <__sprint_r>
 200120c:	103e251e 	bne	r2,zero,2000aa4 <___vfprintf_internal_r+0x6e0>
 2001210:	dc800e17 	ldw	r18,56(sp)
 2001214:	dc400d17 	ldw	r17,52(sp)
 2001218:	dcc01904 	addi	r19,sp,100
 200121c:	003e4206 	br	2000b28 <___vfprintf_internal_r+0x764>
 2001220:	d9014f17 	ldw	r4,1340(sp)
 2001224:	b00b883a 	mov	r5,r22
 2001228:	d9800c04 	addi	r6,sp,48
 200122c:	200036c0 	call	200036c <__sprint_r>
 2001230:	103e1c1e 	bne	r2,zero,2000aa4 <___vfprintf_internal_r+0x6e0>
 2001234:	dc800e17 	ldw	r18,56(sp)
 2001238:	dc400d17 	ldw	r17,52(sp)
 200123c:	d8c01904 	addi	r3,sp,100
 2001240:	003e2e06 	br	2000afc <___vfprintf_internal_r+0x738>
 2001244:	d9414c17 	ldw	r5,1328(sp)
 2001248:	2880004c 	andi	r2,r5,1
 200124c:	1005003a 	cmpeq	r2,r2,zero
 2001250:	103dda1e 	bne	r2,zero,20009bc <___vfprintf_internal_r+0x5f8>
 2001254:	003e9f06 	br	2000cd4 <___vfprintf_internal_r+0x910>
 2001258:	d8c14117 	ldw	r3,1284(sp)
 200125c:	9125883a 	add	r18,r18,r4
 2001260:	8c400044 	addi	r17,r17,1
 2001264:	008001c4 	movi	r2,7
 2001268:	a8c00015 	stw	r3,0(r21)
 200126c:	a9000115 	stw	r4,4(r21)
 2001270:	dc800e15 	stw	r18,56(sp)
 2001274:	dc400d15 	stw	r17,52(sp)
 2001278:	14426616 	blt	r2,r17,2001c14 <___vfprintf_internal_r+0x1850>
 200127c:	a8c00204 	addi	r3,r21,8
 2001280:	d9414917 	ldw	r5,1316(sp)
 2001284:	00800044 	movi	r2,1
 2001288:	94800044 	addi	r18,r18,1
 200128c:	8c400044 	addi	r17,r17,1
 2001290:	18800115 	stw	r2,4(r3)
 2001294:	008001c4 	movi	r2,7
 2001298:	19400015 	stw	r5,0(r3)
 200129c:	dc800e15 	stw	r18,56(sp)
 20012a0:	dc400d15 	stw	r17,52(sp)
 20012a4:	2021883a 	mov	r16,r4
 20012a8:	14425016 	blt	r2,r17,2001bec <___vfprintf_internal_r+0x1828>
 20012ac:	19400204 	addi	r5,r3,8
 20012b0:	d9814717 	ldw	r6,1308(sp)
 20012b4:	8c400044 	addi	r17,r17,1
 20012b8:	dc400d15 	stw	r17,52(sp)
 20012bc:	3107c83a 	sub	r3,r6,r4
 20012c0:	d9014117 	ldw	r4,1284(sp)
 20012c4:	90e5883a 	add	r18,r18,r3
 20012c8:	28c00115 	stw	r3,4(r5)
 20012cc:	8105883a 	add	r2,r16,r4
 20012d0:	28800015 	stw	r2,0(r5)
 20012d4:	008001c4 	movi	r2,7
 20012d8:	dc800e15 	stw	r18,56(sp)
 20012dc:	147f1d16 	blt	r2,r17,2000f54 <___vfprintf_internal_r+0xb90>
 20012e0:	28c00204 	addi	r3,r5,8
 20012e4:	003db506 	br	20009bc <___vfprintf_internal_r+0x5f8>
 20012e8:	3c000017 	ldw	r16,0(r7)
 20012ec:	3c400117 	ldw	r17,4(r7)
 20012f0:	39800204 	addi	r6,r7,8
 20012f4:	01000044 	movi	r4,1
 20012f8:	d9814015 	stw	r6,1280(sp)
 20012fc:	d8000405 	stb	zero,16(sp)
 2001300:	003ebe06 	br	2000dfc <___vfprintf_internal_r+0xa38>
 2001304:	3c000017 	ldw	r16,0(r7)
 2001308:	3c400117 	ldw	r17,4(r7)
 200130c:	38800204 	addi	r2,r7,8
 2001310:	d8814015 	stw	r2,1280(sp)
 2001314:	003eb706 	br	2000df4 <___vfprintf_internal_r+0xa30>
 2001318:	3c000017 	ldw	r16,0(r7)
 200131c:	3c400117 	ldw	r17,4(r7)
 2001320:	39000204 	addi	r4,r7,8
 2001324:	d9014015 	stw	r4,1280(sp)
 2001328:	0009883a 	mov	r4,zero
 200132c:	d8000405 	stb	zero,16(sp)
 2001330:	003eb206 	br	2000dfc <___vfprintf_internal_r+0xa38>
 2001334:	38c00017 	ldw	r3,0(r7)
 2001338:	39c00104 	addi	r7,r7,4
 200133c:	d8c14a15 	stw	r3,1320(sp)
 2001340:	1800d10e 	bge	r3,zero,2001688 <___vfprintf_internal_r+0x12c4>
 2001344:	00c7c83a 	sub	r3,zero,r3
 2001348:	d8c14a15 	stw	r3,1320(sp)
 200134c:	d9014c17 	ldw	r4,1328(sp)
 2001350:	b8c00007 	ldb	r3,0(r23)
 2001354:	21000114 	ori	r4,r4,4
 2001358:	d9014c15 	stw	r4,1328(sp)
 200135c:	003c9806 	br	20005c0 <___vfprintf_internal_r+0x1fc>
 2001360:	d9814c17 	ldw	r6,1328(sp)
 2001364:	3080080c 	andi	r2,r6,32
 2001368:	1001f026 	beq	r2,zero,2001b2c <___vfprintf_internal_r+0x1768>
 200136c:	d9014b17 	ldw	r4,1324(sp)
 2001370:	38800017 	ldw	r2,0(r7)
 2001374:	39c00104 	addi	r7,r7,4
 2001378:	d9c14015 	stw	r7,1280(sp)
 200137c:	2007d7fa 	srai	r3,r4,31
 2001380:	d9c14017 	ldw	r7,1280(sp)
 2001384:	11000015 	stw	r4,0(r2)
 2001388:	10c00115 	stw	r3,4(r2)
 200138c:	003c6906 	br	2000534 <___vfprintf_internal_r+0x170>
 2001390:	b8c00007 	ldb	r3,0(r23)
 2001394:	00801b04 	movi	r2,108
 2001398:	18824f26 	beq	r3,r2,2001cd8 <___vfprintf_internal_r+0x1914>
 200139c:	d9414c17 	ldw	r5,1328(sp)
 20013a0:	29400414 	ori	r5,r5,16
 20013a4:	d9414c15 	stw	r5,1328(sp)
 20013a8:	003c8506 	br	20005c0 <___vfprintf_internal_r+0x1fc>
 20013ac:	d9814c17 	ldw	r6,1328(sp)
 20013b0:	b8c00007 	ldb	r3,0(r23)
 20013b4:	31800814 	ori	r6,r6,32
 20013b8:	d9814c15 	stw	r6,1328(sp)
 20013bc:	003c8006 	br	20005c0 <___vfprintf_internal_r+0x1fc>
 20013c0:	d8814c17 	ldw	r2,1328(sp)
 20013c4:	3c000017 	ldw	r16,0(r7)
 20013c8:	00c01e04 	movi	r3,120
 20013cc:	10800094 	ori	r2,r2,2
 20013d0:	d8814c15 	stw	r2,1328(sp)
 20013d4:	39c00104 	addi	r7,r7,4
 20013d8:	01408074 	movhi	r5,513
 20013dc:	29455f04 	addi	r5,r5,5500
 20013e0:	00800c04 	movi	r2,48
 20013e4:	0023883a 	mov	r17,zero
 20013e8:	01000084 	movi	r4,2
 20013ec:	d9c14015 	stw	r7,1280(sp)
 20013f0:	d8c14d15 	stw	r3,1332(sp)
 20013f4:	d9414415 	stw	r5,1296(sp)
 20013f8:	d8800445 	stb	r2,17(sp)
 20013fc:	d8c00485 	stb	r3,18(sp)
 2001400:	d8000405 	stb	zero,16(sp)
 2001404:	003e7d06 	br	2000dfc <___vfprintf_internal_r+0xa38>
 2001408:	d8814c17 	ldw	r2,1328(sp)
 200140c:	b8c00007 	ldb	r3,0(r23)
 2001410:	10801014 	ori	r2,r2,64
 2001414:	d8814c15 	stw	r2,1328(sp)
 2001418:	003c6906 	br	20005c0 <___vfprintf_internal_r+0x1fc>
 200141c:	d9414c17 	ldw	r5,1328(sp)
 2001420:	2880020c 	andi	r2,r5,8
 2001424:	1001df26 	beq	r2,zero,2001ba4 <___vfprintf_internal_r+0x17e0>
 2001428:	39800017 	ldw	r6,0(r7)
 200142c:	38800204 	addi	r2,r7,8
 2001430:	d8814015 	stw	r2,1280(sp)
 2001434:	d9814215 	stw	r6,1288(sp)
 2001438:	39c00117 	ldw	r7,4(r7)
 200143c:	d9c14315 	stw	r7,1292(sp)
 2001440:	d9014217 	ldw	r4,1288(sp)
 2001444:	d9414317 	ldw	r5,1292(sp)
 2001448:	2008a2c0 	call	2008a2c <__isinfd>
 200144c:	10021726 	beq	r2,zero,2001cac <___vfprintf_internal_r+0x18e8>
 2001450:	d9014217 	ldw	r4,1288(sp)
 2001454:	d9414317 	ldw	r5,1292(sp)
 2001458:	000d883a 	mov	r6,zero
 200145c:	000f883a 	mov	r7,zero
 2001460:	200de740 	call	200de74 <__ltdf2>
 2001464:	1002ca16 	blt	r2,zero,2001f90 <___vfprintf_internal_r+0x1bcc>
 2001468:	d9414d17 	ldw	r5,1332(sp)
 200146c:	008011c4 	movi	r2,71
 2001470:	11420a16 	blt	r2,r5,2001c9c <___vfprintf_internal_r+0x18d8>
 2001474:	01808074 	movhi	r6,513
 2001478:	31856404 	addi	r6,r6,5520
 200147c:	d9814115 	stw	r6,1284(sp)
 2001480:	d9014c17 	ldw	r4,1328(sp)
 2001484:	00c000c4 	movi	r3,3
 2001488:	00bfdfc4 	movi	r2,-129
 200148c:	2088703a 	and	r4,r4,r2
 2001490:	180f883a 	mov	r7,r3
 2001494:	d8c14515 	stw	r3,1300(sp)
 2001498:	d9014c15 	stw	r4,1328(sp)
 200149c:	d8014615 	stw	zero,1304(sp)
 20014a0:	003e6a06 	br	2000e4c <___vfprintf_internal_r+0xa88>
 20014a4:	38800017 	ldw	r2,0(r7)
 20014a8:	00c00044 	movi	r3,1
 20014ac:	39c00104 	addi	r7,r7,4
 20014b0:	d9c14015 	stw	r7,1280(sp)
 20014b4:	d9000f04 	addi	r4,sp,60
 20014b8:	180f883a 	mov	r7,r3
 20014bc:	d8c14515 	stw	r3,1300(sp)
 20014c0:	d9014115 	stw	r4,1284(sp)
 20014c4:	d8800f05 	stb	r2,60(sp)
 20014c8:	d8000405 	stb	zero,16(sp)
 20014cc:	003cac06 	br	2000780 <___vfprintf_internal_r+0x3bc>
 20014d0:	01408074 	movhi	r5,513
 20014d4:	29456a04 	addi	r5,r5,5544
 20014d8:	d9414415 	stw	r5,1296(sp)
 20014dc:	d9814c17 	ldw	r6,1328(sp)
 20014e0:	3080080c 	andi	r2,r6,32
 20014e4:	1000f926 	beq	r2,zero,20018cc <___vfprintf_internal_r+0x1508>
 20014e8:	3c000017 	ldw	r16,0(r7)
 20014ec:	3c400117 	ldw	r17,4(r7)
 20014f0:	38800204 	addi	r2,r7,8
 20014f4:	d8814015 	stw	r2,1280(sp)
 20014f8:	d9414c17 	ldw	r5,1328(sp)
 20014fc:	2880004c 	andi	r2,r5,1
 2001500:	1005003a 	cmpeq	r2,r2,zero
 2001504:	1000b31e 	bne	r2,zero,20017d4 <___vfprintf_internal_r+0x1410>
 2001508:	8444b03a 	or	r2,r16,r17
 200150c:	1000b126 	beq	r2,zero,20017d4 <___vfprintf_internal_r+0x1410>
 2001510:	d9814d17 	ldw	r6,1332(sp)
 2001514:	29400094 	ori	r5,r5,2
 2001518:	00800c04 	movi	r2,48
 200151c:	01000084 	movi	r4,2
 2001520:	d9414c15 	stw	r5,1328(sp)
 2001524:	d8800445 	stb	r2,17(sp)
 2001528:	d9800485 	stb	r6,18(sp)
 200152c:	d8000405 	stb	zero,16(sp)
 2001530:	003e3206 	br	2000dfc <___vfprintf_internal_r+0xa38>
 2001534:	01808074 	movhi	r6,513
 2001538:	31855f04 	addi	r6,r6,5500
 200153c:	d9814415 	stw	r6,1296(sp)
 2001540:	003fe606 	br	20014dc <___vfprintf_internal_r+0x1118>
 2001544:	00800ac4 	movi	r2,43
 2001548:	d8800405 	stb	r2,16(sp)
 200154c:	b8c00007 	ldb	r3,0(r23)
 2001550:	003c1b06 	br	20005c0 <___vfprintf_internal_r+0x1fc>
 2001554:	d8814c17 	ldw	r2,1328(sp)
 2001558:	b8c00007 	ldb	r3,0(r23)
 200155c:	10800054 	ori	r2,r2,1
 2001560:	d8814c15 	stw	r2,1328(sp)
 2001564:	003c1606 	br	20005c0 <___vfprintf_internal_r+0x1fc>
 2001568:	d8800407 	ldb	r2,16(sp)
 200156c:	1000461e 	bne	r2,zero,2001688 <___vfprintf_internal_r+0x12c4>
 2001570:	00800804 	movi	r2,32
 2001574:	d8800405 	stb	r2,16(sp)
 2001578:	b8c00007 	ldb	r3,0(r23)
 200157c:	003c1006 	br	20005c0 <___vfprintf_internal_r+0x1fc>
 2001580:	d9814c17 	ldw	r6,1328(sp)
 2001584:	b8c00007 	ldb	r3,0(r23)
 2001588:	31800214 	ori	r6,r6,8
 200158c:	d9814c15 	stw	r6,1328(sp)
 2001590:	003c0b06 	br	20005c0 <___vfprintf_internal_r+0x1fc>
 2001594:	0007883a 	mov	r3,zero
 2001598:	01000244 	movi	r4,9
 200159c:	188002a4 	muli	r2,r3,10
 20015a0:	b8c00007 	ldb	r3,0(r23)
 20015a4:	d9814d17 	ldw	r6,1332(sp)
 20015a8:	bdc00044 	addi	r23,r23,1
 20015ac:	d8c14d15 	stw	r3,1332(sp)
 20015b0:	d9414d17 	ldw	r5,1332(sp)
 20015b4:	3085883a 	add	r2,r6,r2
 20015b8:	10fff404 	addi	r3,r2,-48
 20015bc:	28bff404 	addi	r2,r5,-48
 20015c0:	20bff62e 	bgeu	r4,r2,200159c <___vfprintf_internal_r+0x11d8>
 20015c4:	d8c14a15 	stw	r3,1320(sp)
 20015c8:	003bff06 	br	20005c8 <___vfprintf_internal_r+0x204>
 20015cc:	d9414c17 	ldw	r5,1328(sp)
 20015d0:	b8c00007 	ldb	r3,0(r23)
 20015d4:	29402014 	ori	r5,r5,128
 20015d8:	d9414c15 	stw	r5,1328(sp)
 20015dc:	003bf806 	br	20005c0 <___vfprintf_internal_r+0x1fc>
 20015e0:	b8c00007 	ldb	r3,0(r23)
 20015e4:	00800a84 	movi	r2,42
 20015e8:	bdc00044 	addi	r23,r23,1
 20015ec:	18831526 	beq	r3,r2,2002244 <___vfprintf_internal_r+0x1e80>
 20015f0:	d8c14d15 	stw	r3,1332(sp)
 20015f4:	18bff404 	addi	r2,r3,-48
 20015f8:	00c00244 	movi	r3,9
 20015fc:	18827836 	bltu	r3,r2,2001fe0 <___vfprintf_internal_r+0x1c1c>
 2001600:	000d883a 	mov	r6,zero
 2001604:	308002a4 	muli	r2,r6,10
 2001608:	b9800007 	ldb	r6,0(r23)
 200160c:	d9414d17 	ldw	r5,1332(sp)
 2001610:	bdc00044 	addi	r23,r23,1
 2001614:	d9814d15 	stw	r6,1332(sp)
 2001618:	d9014d17 	ldw	r4,1332(sp)
 200161c:	1145883a 	add	r2,r2,r5
 2001620:	11bff404 	addi	r6,r2,-48
 2001624:	20bff404 	addi	r2,r4,-48
 2001628:	18bff62e 	bgeu	r3,r2,2001604 <___vfprintf_internal_r+0x1240>
 200162c:	3027883a 	mov	r19,r6
 2001630:	303be50e 	bge	r6,zero,20005c8 <___vfprintf_internal_r+0x204>
 2001634:	04ffffc4 	movi	r19,-1
 2001638:	003be306 	br	20005c8 <___vfprintf_internal_r+0x204>
 200163c:	d8000405 	stb	zero,16(sp)
 2001640:	39800017 	ldw	r6,0(r7)
 2001644:	39c00104 	addi	r7,r7,4
 2001648:	d9c14015 	stw	r7,1280(sp)
 200164c:	d9814115 	stw	r6,1284(sp)
 2001650:	3001c926 	beq	r6,zero,2001d78 <___vfprintf_internal_r+0x19b4>
 2001654:	98000e16 	blt	r19,zero,2001690 <___vfprintf_internal_r+0x12cc>
 2001658:	d9014117 	ldw	r4,1284(sp)
 200165c:	000b883a 	mov	r5,zero
 2001660:	980d883a 	mov	r6,r19
 2001664:	2006f680 	call	2006f68 <memchr>
 2001668:	10025926 	beq	r2,zero,2001fd0 <___vfprintf_internal_r+0x1c0c>
 200166c:	d8c14117 	ldw	r3,1284(sp)
 2001670:	10cfc83a 	sub	r7,r2,r3
 2001674:	99c19e16 	blt	r19,r7,2001cf0 <___vfprintf_internal_r+0x192c>
 2001678:	d9c14515 	stw	r7,1300(sp)
 200167c:	38000916 	blt	r7,zero,20016a4 <___vfprintf_internal_r+0x12e0>
 2001680:	d8014615 	stw	zero,1304(sp)
 2001684:	003df106 	br	2000e4c <___vfprintf_internal_r+0xa88>
 2001688:	b8c00007 	ldb	r3,0(r23)
 200168c:	003bcc06 	br	20005c0 <___vfprintf_internal_r+0x1fc>
 2001690:	d9014117 	ldw	r4,1284(sp)
 2001694:	2008eb00 	call	2008eb0 <strlen>
 2001698:	d8814515 	stw	r2,1300(sp)
 200169c:	100f883a 	mov	r7,r2
 20016a0:	103ff70e 	bge	r2,zero,2001680 <___vfprintf_internal_r+0x12bc>
 20016a4:	d8014515 	stw	zero,1300(sp)
 20016a8:	d8014615 	stw	zero,1304(sp)
 20016ac:	003de706 	br	2000e4c <___vfprintf_internal_r+0xa88>
 20016b0:	20c03fcc 	andi	r3,r4,255
 20016b4:	00800044 	movi	r2,1
 20016b8:	18802d26 	beq	r3,r2,2001770 <___vfprintf_internal_r+0x13ac>
 20016bc:	18800e36 	bltu	r3,r2,20016f8 <___vfprintf_internal_r+0x1334>
 20016c0:	00800084 	movi	r2,2
 20016c4:	1880fa26 	beq	r3,r2,2001ab0 <___vfprintf_internal_r+0x16ec>
 20016c8:	01008074 	movhi	r4,513
 20016cc:	21056f04 	addi	r4,r4,5564
 20016d0:	2008eb00 	call	2008eb0 <strlen>
 20016d4:	100f883a 	mov	r7,r2
 20016d8:	dcc14515 	stw	r19,1300(sp)
 20016dc:	9880010e 	bge	r19,r2,20016e4 <___vfprintf_internal_r+0x1320>
 20016e0:	d8814515 	stw	r2,1300(sp)
 20016e4:	00808074 	movhi	r2,513
 20016e8:	10856f04 	addi	r2,r2,5564
 20016ec:	dcc14615 	stw	r19,1304(sp)
 20016f0:	d8814115 	stw	r2,1284(sp)
 20016f4:	003dd506 	br	2000e4c <___vfprintf_internal_r+0xa88>
 20016f8:	d9401904 	addi	r5,sp,100
 20016fc:	dd000f04 	addi	r20,sp,60
 2001700:	d9414115 	stw	r5,1284(sp)
 2001704:	880a977a 	slli	r5,r17,29
 2001708:	d9814117 	ldw	r6,1284(sp)
 200170c:	8004d0fa 	srli	r2,r16,3
 2001710:	8806d0fa 	srli	r3,r17,3
 2001714:	810001cc 	andi	r4,r16,7
 2001718:	2884b03a 	or	r2,r5,r2
 200171c:	31bfffc4 	addi	r6,r6,-1
 2001720:	21000c04 	addi	r4,r4,48
 2001724:	d9814115 	stw	r6,1284(sp)
 2001728:	10cab03a 	or	r5,r2,r3
 200172c:	31000005 	stb	r4,0(r6)
 2001730:	1021883a 	mov	r16,r2
 2001734:	1823883a 	mov	r17,r3
 2001738:	283ff21e 	bne	r5,zero,2001704 <___vfprintf_internal_r+0x1340>
 200173c:	d8c14c17 	ldw	r3,1328(sp)
 2001740:	1880004c 	andi	r2,r3,1
 2001744:	1005003a 	cmpeq	r2,r2,zero
 2001748:	103db91e 	bne	r2,zero,2000e30 <___vfprintf_internal_r+0xa6c>
 200174c:	20803fcc 	andi	r2,r4,255
 2001750:	1080201c 	xori	r2,r2,128
 2001754:	10bfe004 	addi	r2,r2,-128
 2001758:	00c00c04 	movi	r3,48
 200175c:	10fdb426 	beq	r2,r3,2000e30 <___vfprintf_internal_r+0xa6c>
 2001760:	31bfffc4 	addi	r6,r6,-1
 2001764:	d9814115 	stw	r6,1284(sp)
 2001768:	30c00005 	stb	r3,0(r6)
 200176c:	003db006 	br	2000e30 <___vfprintf_internal_r+0xa6c>
 2001770:	88800068 	cmpgeui	r2,r17,1
 2001774:	10002c1e 	bne	r2,zero,2001828 <___vfprintf_internal_r+0x1464>
 2001778:	8800021e 	bne	r17,zero,2001784 <___vfprintf_internal_r+0x13c0>
 200177c:	00800244 	movi	r2,9
 2001780:	14002936 	bltu	r2,r16,2001828 <___vfprintf_internal_r+0x1464>
 2001784:	d90018c4 	addi	r4,sp,99
 2001788:	dd000f04 	addi	r20,sp,60
 200178c:	d9014115 	stw	r4,1284(sp)
 2001790:	d9014117 	ldw	r4,1284(sp)
 2001794:	80800c04 	addi	r2,r16,48
 2001798:	20800005 	stb	r2,0(r4)
 200179c:	003da406 	br	2000e30 <___vfprintf_internal_r+0xa6c>
 20017a0:	dc400d17 	ldw	r17,52(sp)
 20017a4:	07008074 	movhi	fp,513
 20017a8:	e7057684 	addi	fp,fp,5594
 20017ac:	9425883a 	add	r18,r18,r16
 20017b0:	8c400044 	addi	r17,r17,1
 20017b4:	008001c4 	movi	r2,7
 20017b8:	1f000015 	stw	fp,0(r3)
 20017bc:	1c000115 	stw	r16,4(r3)
 20017c0:	dc800e15 	stw	r18,56(sp)
 20017c4:	dc400d15 	stw	r17,52(sp)
 20017c8:	147de216 	blt	r2,r17,2000f54 <___vfprintf_internal_r+0xb90>
 20017cc:	18c00204 	addi	r3,r3,8
 20017d0:	003c7a06 	br	20009bc <___vfprintf_internal_r+0x5f8>
 20017d4:	01000084 	movi	r4,2
 20017d8:	d8000405 	stb	zero,16(sp)
 20017dc:	003d8706 	br	2000dfc <___vfprintf_internal_r+0xa38>
 20017e0:	d9814c17 	ldw	r6,1328(sp)
 20017e4:	30c4703a 	and	r2,r6,r3
 20017e8:	1005003a 	cmpeq	r2,r2,zero
 20017ec:	103cb926 	beq	r2,zero,2000ad4 <___vfprintf_internal_r+0x710>
 20017f0:	d9014117 	ldw	r4,1284(sp)
 20017f4:	94800044 	addi	r18,r18,1
 20017f8:	8c400044 	addi	r17,r17,1
 20017fc:	008001c4 	movi	r2,7
 2001800:	a9000015 	stw	r4,0(r21)
 2001804:	a8c00115 	stw	r3,4(r21)
 2001808:	dc800e15 	stw	r18,56(sp)
 200180c:	dc400d15 	stw	r17,52(sp)
 2001810:	147e6616 	blt	r2,r17,20011ac <___vfprintf_internal_r+0xde8>
 2001814:	acc00204 	addi	r19,r21,8
 2001818:	003cd706 	br	2000b78 <___vfprintf_internal_r+0x7b4>
 200181c:	07008074 	movhi	fp,513
 2001820:	e7057684 	addi	fp,fp,5594
 2001824:	003c4f06 	br	2000964 <___vfprintf_internal_r+0x5a0>
 2001828:	dd000f04 	addi	r20,sp,60
 200182c:	dc801904 	addi	r18,sp,100
 2001830:	8009883a 	mov	r4,r16
 2001834:	880b883a 	mov	r5,r17
 2001838:	01800284 	movi	r6,10
 200183c:	000f883a 	mov	r7,zero
 2001840:	200ca1c0 	call	200ca1c <__umoddi3>
 2001844:	12000c04 	addi	r8,r2,48
 2001848:	94bfffc4 	addi	r18,r18,-1
 200184c:	8009883a 	mov	r4,r16
 2001850:	880b883a 	mov	r5,r17
 2001854:	01800284 	movi	r6,10
 2001858:	000f883a 	mov	r7,zero
 200185c:	92000005 	stb	r8,0(r18)
 2001860:	200c4400 	call	200c440 <__udivdi3>
 2001864:	1009883a 	mov	r4,r2
 2001868:	1021883a 	mov	r16,r2
 200186c:	18800068 	cmpgeui	r2,r3,1
 2001870:	1823883a 	mov	r17,r3
 2001874:	103fee1e 	bne	r2,zero,2001830 <___vfprintf_internal_r+0x146c>
 2001878:	1800021e 	bne	r3,zero,2001884 <___vfprintf_internal_r+0x14c0>
 200187c:	00800244 	movi	r2,9
 2001880:	113feb36 	bltu	r2,r4,2001830 <___vfprintf_internal_r+0x146c>
 2001884:	94bfffc4 	addi	r18,r18,-1
 2001888:	dc814115 	stw	r18,1284(sp)
 200188c:	003fc006 	br	2001790 <___vfprintf_internal_r+0x13cc>
 2001890:	d9014c17 	ldw	r4,1328(sp)
 2001894:	2080004c 	andi	r2,r4,1
 2001898:	10009a1e 	bne	r2,zero,2001b04 <___vfprintf_internal_r+0x1740>
 200189c:	d9401904 	addi	r5,sp,100
 20018a0:	dd000f04 	addi	r20,sp,60
 20018a4:	d9414115 	stw	r5,1284(sp)
 20018a8:	003d6106 	br	2000e30 <___vfprintf_internal_r+0xa6c>
 20018ac:	d9014f17 	ldw	r4,1340(sp)
 20018b0:	b00b883a 	mov	r5,r22
 20018b4:	d9800c04 	addi	r6,sp,48
 20018b8:	200036c0 	call	200036c <__sprint_r>
 20018bc:	103c791e 	bne	r2,zero,2000aa4 <___vfprintf_internal_r+0x6e0>
 20018c0:	dc800e17 	ldw	r18,56(sp)
 20018c4:	d8c01904 	addi	r3,sp,100
 20018c8:	003cff06 	br	2000cc8 <___vfprintf_internal_r+0x904>
 20018cc:	d8c14c17 	ldw	r3,1328(sp)
 20018d0:	1880040c 	andi	r2,r3,16
 20018d4:	1000711e 	bne	r2,zero,2001a9c <___vfprintf_internal_r+0x16d8>
 20018d8:	d9014c17 	ldw	r4,1328(sp)
 20018dc:	2080100c 	andi	r2,r4,64
 20018e0:	10006e26 	beq	r2,zero,2001a9c <___vfprintf_internal_r+0x16d8>
 20018e4:	3c00000b 	ldhu	r16,0(r7)
 20018e8:	0023883a 	mov	r17,zero
 20018ec:	39c00104 	addi	r7,r7,4
 20018f0:	d9c14015 	stw	r7,1280(sp)
 20018f4:	003f0006 	br	20014f8 <___vfprintf_internal_r+0x1134>
 20018f8:	dc400d17 	ldw	r17,52(sp)
 20018fc:	07008074 	movhi	fp,513
 2001900:	e7057684 	addi	fp,fp,5594
 2001904:	9425883a 	add	r18,r18,r16
 2001908:	8c400044 	addi	r17,r17,1
 200190c:	008001c4 	movi	r2,7
 2001910:	1f000015 	stw	fp,0(r3)
 2001914:	1c000115 	stw	r16,4(r3)
 2001918:	dc800e15 	stw	r18,56(sp)
 200191c:	dc400d15 	stw	r17,52(sp)
 2001920:	147d7616 	blt	r2,r17,2000efc <___vfprintf_internal_r+0xb38>
 2001924:	18c00204 	addi	r3,r3,8
 2001928:	003d7b06 	br	2000f18 <___vfprintf_internal_r+0xb54>
 200192c:	dc800e17 	ldw	r18,56(sp)
 2001930:	dc400d17 	ldw	r17,52(sp)
 2001934:	07008074 	movhi	fp,513
 2001938:	e7057a84 	addi	fp,fp,5610
 200193c:	003bc006 	br	2000840 <___vfprintf_internal_r+0x47c>
 2001940:	d9014f17 	ldw	r4,1340(sp)
 2001944:	b00b883a 	mov	r5,r22
 2001948:	d9800c04 	addi	r6,sp,48
 200194c:	200036c0 	call	200036c <__sprint_r>
 2001950:	103c541e 	bne	r2,zero,2000aa4 <___vfprintf_internal_r+0x6e0>
 2001954:	dc800e17 	ldw	r18,56(sp)
 2001958:	d8c01904 	addi	r3,sp,100
 200195c:	003ce906 	br	2000d04 <___vfprintf_internal_r+0x940>
 2001960:	3c000017 	ldw	r16,0(r7)
 2001964:	0009883a 	mov	r4,zero
 2001968:	39c00104 	addi	r7,r7,4
 200196c:	0023883a 	mov	r17,zero
 2001970:	d9c14015 	stw	r7,1280(sp)
 2001974:	d8000405 	stb	zero,16(sp)
 2001978:	003d2006 	br	2000dfc <___vfprintf_internal_r+0xa38>
 200197c:	38800017 	ldw	r2,0(r7)
 2001980:	39c00104 	addi	r7,r7,4
 2001984:	d9c14015 	stw	r7,1280(sp)
 2001988:	1023d7fa 	srai	r17,r2,31
 200198c:	1021883a 	mov	r16,r2
 2001990:	003d1806 	br	2000df4 <___vfprintf_internal_r+0xa30>
 2001994:	3c000017 	ldw	r16,0(r7)
 2001998:	01000044 	movi	r4,1
 200199c:	39c00104 	addi	r7,r7,4
 20019a0:	0023883a 	mov	r17,zero
 20019a4:	d9c14015 	stw	r7,1280(sp)
 20019a8:	d8000405 	stb	zero,16(sp)
 20019ac:	003d1306 	br	2000dfc <___vfprintf_internal_r+0xa38>
 20019b0:	00808074 	movhi	r2,513
 20019b4:	10857604 	addi	r2,r2,5592
 20019b8:	94800044 	addi	r18,r18,1
 20019bc:	8c400044 	addi	r17,r17,1
 20019c0:	a8800015 	stw	r2,0(r21)
 20019c4:	00c00044 	movi	r3,1
 20019c8:	008001c4 	movi	r2,7
 20019cc:	a8c00115 	stw	r3,4(r21)
 20019d0:	dc800e15 	stw	r18,56(sp)
 20019d4:	dc400d15 	stw	r17,52(sp)
 20019d8:	1440ca16 	blt	r2,r17,2001d04 <___vfprintf_internal_r+0x1940>
 20019dc:	a8c00204 	addi	r3,r21,8
 20019e0:	2000061e 	bne	r4,zero,20019fc <___vfprintf_internal_r+0x1638>
 20019e4:	d9414717 	ldw	r5,1308(sp)
 20019e8:	2800041e 	bne	r5,zero,20019fc <___vfprintf_internal_r+0x1638>
 20019ec:	d9814c17 	ldw	r6,1328(sp)
 20019f0:	3080004c 	andi	r2,r6,1
 20019f4:	1005003a 	cmpeq	r2,r2,zero
 20019f8:	103bf01e 	bne	r2,zero,20009bc <___vfprintf_internal_r+0x5f8>
 20019fc:	00800044 	movi	r2,1
 2001a00:	dc400d17 	ldw	r17,52(sp)
 2001a04:	18800115 	stw	r2,4(r3)
 2001a08:	d8814917 	ldw	r2,1316(sp)
 2001a0c:	94800044 	addi	r18,r18,1
 2001a10:	8c400044 	addi	r17,r17,1
 2001a14:	18800015 	stw	r2,0(r3)
 2001a18:	008001c4 	movi	r2,7
 2001a1c:	dc800e15 	stw	r18,56(sp)
 2001a20:	dc400d15 	stw	r17,52(sp)
 2001a24:	1440ca16 	blt	r2,r17,2001d50 <___vfprintf_internal_r+0x198c>
 2001a28:	18c00204 	addi	r3,r3,8
 2001a2c:	0121c83a 	sub	r16,zero,r4
 2001a30:	0400500e 	bge	zero,r16,2001b74 <___vfprintf_internal_r+0x17b0>
 2001a34:	00800404 	movi	r2,16
 2001a38:	1400800e 	bge	r2,r16,2001c3c <___vfprintf_internal_r+0x1878>
 2001a3c:	1027883a 	mov	r19,r2
 2001a40:	07008074 	movhi	fp,513
 2001a44:	e7057684 	addi	fp,fp,5594
 2001a48:	050001c4 	movi	r20,7
 2001a4c:	00000306 	br	2001a5c <___vfprintf_internal_r+0x1698>
 2001a50:	18c00204 	addi	r3,r3,8
 2001a54:	843ffc04 	addi	r16,r16,-16
 2001a58:	9c007a0e 	bge	r19,r16,2001c44 <___vfprintf_internal_r+0x1880>
 2001a5c:	94800404 	addi	r18,r18,16
 2001a60:	8c400044 	addi	r17,r17,1
 2001a64:	1f000015 	stw	fp,0(r3)
 2001a68:	1cc00115 	stw	r19,4(r3)
 2001a6c:	dc800e15 	stw	r18,56(sp)
 2001a70:	dc400d15 	stw	r17,52(sp)
 2001a74:	a47ff60e 	bge	r20,r17,2001a50 <___vfprintf_internal_r+0x168c>
 2001a78:	d9014f17 	ldw	r4,1340(sp)
 2001a7c:	b00b883a 	mov	r5,r22
 2001a80:	d9800c04 	addi	r6,sp,48
 2001a84:	200036c0 	call	200036c <__sprint_r>
 2001a88:	103c061e 	bne	r2,zero,2000aa4 <___vfprintf_internal_r+0x6e0>
 2001a8c:	dc800e17 	ldw	r18,56(sp)
 2001a90:	dc400d17 	ldw	r17,52(sp)
 2001a94:	d8c01904 	addi	r3,sp,100
 2001a98:	003fee06 	br	2001a54 <___vfprintf_internal_r+0x1690>
 2001a9c:	3c000017 	ldw	r16,0(r7)
 2001aa0:	0023883a 	mov	r17,zero
 2001aa4:	39c00104 	addi	r7,r7,4
 2001aa8:	d9c14015 	stw	r7,1280(sp)
 2001aac:	003e9206 	br	20014f8 <___vfprintf_internal_r+0x1134>
 2001ab0:	d9401904 	addi	r5,sp,100
 2001ab4:	dd000f04 	addi	r20,sp,60
 2001ab8:	d9414115 	stw	r5,1284(sp)
 2001abc:	d9814417 	ldw	r6,1296(sp)
 2001ac0:	880a973a 	slli	r5,r17,28
 2001ac4:	8004d13a 	srli	r2,r16,4
 2001ac8:	810003cc 	andi	r4,r16,15
 2001acc:	3109883a 	add	r4,r6,r4
 2001ad0:	2884b03a 	or	r2,r5,r2
 2001ad4:	21400003 	ldbu	r5,0(r4)
 2001ad8:	d9014117 	ldw	r4,1284(sp)
 2001adc:	8806d13a 	srli	r3,r17,4
 2001ae0:	1021883a 	mov	r16,r2
 2001ae4:	213fffc4 	addi	r4,r4,-1
 2001ae8:	d9014115 	stw	r4,1284(sp)
 2001aec:	d9814117 	ldw	r6,1284(sp)
 2001af0:	10c8b03a 	or	r4,r2,r3
 2001af4:	1823883a 	mov	r17,r3
 2001af8:	31400005 	stb	r5,0(r6)
 2001afc:	203fef1e 	bne	r4,zero,2001abc <___vfprintf_internal_r+0x16f8>
 2001b00:	003ccb06 	br	2000e30 <___vfprintf_internal_r+0xa6c>
 2001b04:	00800c04 	movi	r2,48
 2001b08:	d98018c4 	addi	r6,sp,99
 2001b0c:	dd000f04 	addi	r20,sp,60
 2001b10:	d88018c5 	stb	r2,99(sp)
 2001b14:	d9814115 	stw	r6,1284(sp)
 2001b18:	003cc506 	br	2000e30 <___vfprintf_internal_r+0xa6c>
 2001b1c:	dc400d17 	ldw	r17,52(sp)
 2001b20:	07008074 	movhi	fp,513
 2001b24:	e7057a84 	addi	fp,fp,5610
 2001b28:	003bc706 	br	2000a48 <___vfprintf_internal_r+0x684>
 2001b2c:	d9414c17 	ldw	r5,1328(sp)
 2001b30:	2880040c 	andi	r2,r5,16
 2001b34:	10007c26 	beq	r2,zero,2001d28 <___vfprintf_internal_r+0x1964>
 2001b38:	38800017 	ldw	r2,0(r7)
 2001b3c:	39c00104 	addi	r7,r7,4
 2001b40:	d9c14015 	stw	r7,1280(sp)
 2001b44:	d9814b17 	ldw	r6,1324(sp)
 2001b48:	d9c14017 	ldw	r7,1280(sp)
 2001b4c:	11800015 	stw	r6,0(r2)
 2001b50:	003a7806 	br	2000534 <___vfprintf_internal_r+0x170>
 2001b54:	d9014f17 	ldw	r4,1340(sp)
 2001b58:	b00b883a 	mov	r5,r22
 2001b5c:	d9800c04 	addi	r6,sp,48
 2001b60:	200036c0 	call	200036c <__sprint_r>
 2001b64:	103bcf1e 	bne	r2,zero,2000aa4 <___vfprintf_internal_r+0x6e0>
 2001b68:	dc800e17 	ldw	r18,56(sp)
 2001b6c:	dc400d17 	ldw	r17,52(sp)
 2001b70:	d8c01904 	addi	r3,sp,100
 2001b74:	d9014717 	ldw	r4,1308(sp)
 2001b78:	d9414117 	ldw	r5,1284(sp)
 2001b7c:	8c400044 	addi	r17,r17,1
 2001b80:	9125883a 	add	r18,r18,r4
 2001b84:	008001c4 	movi	r2,7
 2001b88:	19400015 	stw	r5,0(r3)
 2001b8c:	19000115 	stw	r4,4(r3)
 2001b90:	dc800e15 	stw	r18,56(sp)
 2001b94:	dc400d15 	stw	r17,52(sp)
 2001b98:	147cee16 	blt	r2,r17,2000f54 <___vfprintf_internal_r+0xb90>
 2001b9c:	18c00204 	addi	r3,r3,8
 2001ba0:	003b8606 	br	20009bc <___vfprintf_internal_r+0x5f8>
 2001ba4:	38c00017 	ldw	r3,0(r7)
 2001ba8:	39000204 	addi	r4,r7,8
 2001bac:	d9014015 	stw	r4,1280(sp)
 2001bb0:	d8c14215 	stw	r3,1288(sp)
 2001bb4:	39c00117 	ldw	r7,4(r7)
 2001bb8:	d9c14315 	stw	r7,1292(sp)
 2001bbc:	003e2006 	br	2001440 <___vfprintf_internal_r+0x107c>
 2001bc0:	0005883a 	mov	r2,zero
 2001bc4:	1409c83a 	sub	r4,r2,r16
 2001bc8:	1105803a 	cmpltu	r2,r2,r4
 2001bcc:	044bc83a 	sub	r5,zero,r17
 2001bd0:	2885c83a 	sub	r2,r5,r2
 2001bd4:	2021883a 	mov	r16,r4
 2001bd8:	1023883a 	mov	r17,r2
 2001bdc:	01000044 	movi	r4,1
 2001be0:	00800b44 	movi	r2,45
 2001be4:	d8800405 	stb	r2,16(sp)
 2001be8:	003c8406 	br	2000dfc <___vfprintf_internal_r+0xa38>
 2001bec:	d9014f17 	ldw	r4,1340(sp)
 2001bf0:	b00b883a 	mov	r5,r22
 2001bf4:	d9800c04 	addi	r6,sp,48
 2001bf8:	200036c0 	call	200036c <__sprint_r>
 2001bfc:	103ba91e 	bne	r2,zero,2000aa4 <___vfprintf_internal_r+0x6e0>
 2001c00:	dc800e17 	ldw	r18,56(sp)
 2001c04:	dc400d17 	ldw	r17,52(sp)
 2001c08:	d9000517 	ldw	r4,20(sp)
 2001c0c:	d9401904 	addi	r5,sp,100
 2001c10:	003da706 	br	20012b0 <___vfprintf_internal_r+0xeec>
 2001c14:	d9014f17 	ldw	r4,1340(sp)
 2001c18:	b00b883a 	mov	r5,r22
 2001c1c:	d9800c04 	addi	r6,sp,48
 2001c20:	200036c0 	call	200036c <__sprint_r>
 2001c24:	103b9f1e 	bne	r2,zero,2000aa4 <___vfprintf_internal_r+0x6e0>
 2001c28:	dc800e17 	ldw	r18,56(sp)
 2001c2c:	dc400d17 	ldw	r17,52(sp)
 2001c30:	d9000517 	ldw	r4,20(sp)
 2001c34:	d8c01904 	addi	r3,sp,100
 2001c38:	003d9106 	br	2001280 <___vfprintf_internal_r+0xebc>
 2001c3c:	07008074 	movhi	fp,513
 2001c40:	e7057684 	addi	fp,fp,5594
 2001c44:	9425883a 	add	r18,r18,r16
 2001c48:	8c400044 	addi	r17,r17,1
 2001c4c:	008001c4 	movi	r2,7
 2001c50:	1f000015 	stw	fp,0(r3)
 2001c54:	1c000115 	stw	r16,4(r3)
 2001c58:	dc800e15 	stw	r18,56(sp)
 2001c5c:	dc400d15 	stw	r17,52(sp)
 2001c60:	147fbc16 	blt	r2,r17,2001b54 <___vfprintf_internal_r+0x1790>
 2001c64:	18c00204 	addi	r3,r3,8
 2001c68:	003fc206 	br	2001b74 <___vfprintf_internal_r+0x17b0>
 2001c6c:	d9014f17 	ldw	r4,1340(sp)
 2001c70:	b00b883a 	mov	r5,r22
 2001c74:	d9800c04 	addi	r6,sp,48
 2001c78:	200036c0 	call	200036c <__sprint_r>
 2001c7c:	103b891e 	bne	r2,zero,2000aa4 <___vfprintf_internal_r+0x6e0>
 2001c80:	dc800e17 	ldw	r18,56(sp)
 2001c84:	d9000517 	ldw	r4,20(sp)
 2001c88:	d8c01904 	addi	r3,sp,100
 2001c8c:	003d0206 	br	2001098 <___vfprintf_internal_r+0xcd4>
 2001c90:	07008074 	movhi	fp,513
 2001c94:	e7057684 	addi	fp,fp,5594
 2001c98:	003be406 	br	2000c2c <___vfprintf_internal_r+0x868>
 2001c9c:	00808074 	movhi	r2,513
 2001ca0:	10856504 	addi	r2,r2,5524
 2001ca4:	d8814115 	stw	r2,1284(sp)
 2001ca8:	003df506 	br	2001480 <___vfprintf_internal_r+0x10bc>
 2001cac:	d9014217 	ldw	r4,1288(sp)
 2001cb0:	d9414317 	ldw	r5,1292(sp)
 2001cb4:	2008a6c0 	call	2008a6c <__isnand>
 2001cb8:	10003926 	beq	r2,zero,2001da0 <___vfprintf_internal_r+0x19dc>
 2001cbc:	d9414d17 	ldw	r5,1332(sp)
 2001cc0:	008011c4 	movi	r2,71
 2001cc4:	1140ce16 	blt	r2,r5,2002000 <___vfprintf_internal_r+0x1c3c>
 2001cc8:	01808074 	movhi	r6,513
 2001ccc:	31856604 	addi	r6,r6,5528
 2001cd0:	d9814115 	stw	r6,1284(sp)
 2001cd4:	003dea06 	br	2001480 <___vfprintf_internal_r+0x10bc>
 2001cd8:	d9014c17 	ldw	r4,1328(sp)
 2001cdc:	bdc00044 	addi	r23,r23,1
 2001ce0:	b8c00007 	ldb	r3,0(r23)
 2001ce4:	21000814 	ori	r4,r4,32
 2001ce8:	d9014c15 	stw	r4,1328(sp)
 2001cec:	003a3406 	br	20005c0 <___vfprintf_internal_r+0x1fc>
 2001cf0:	dcc14515 	stw	r19,1300(sp)
 2001cf4:	98011016 	blt	r19,zero,2002138 <___vfprintf_internal_r+0x1d74>
 2001cf8:	980f883a 	mov	r7,r19
 2001cfc:	d8014615 	stw	zero,1304(sp)
 2001d00:	003c5206 	br	2000e4c <___vfprintf_internal_r+0xa88>
 2001d04:	d9014f17 	ldw	r4,1340(sp)
 2001d08:	b00b883a 	mov	r5,r22
 2001d0c:	d9800c04 	addi	r6,sp,48
 2001d10:	200036c0 	call	200036c <__sprint_r>
 2001d14:	103b631e 	bne	r2,zero,2000aa4 <___vfprintf_internal_r+0x6e0>
 2001d18:	dc800e17 	ldw	r18,56(sp)
 2001d1c:	d9000517 	ldw	r4,20(sp)
 2001d20:	d8c01904 	addi	r3,sp,100
 2001d24:	003f2e06 	br	20019e0 <___vfprintf_internal_r+0x161c>
 2001d28:	d8c14c17 	ldw	r3,1328(sp)
 2001d2c:	1880100c 	andi	r2,r3,64
 2001d30:	1000a026 	beq	r2,zero,2001fb4 <___vfprintf_internal_r+0x1bf0>
 2001d34:	38800017 	ldw	r2,0(r7)
 2001d38:	39c00104 	addi	r7,r7,4
 2001d3c:	d9c14015 	stw	r7,1280(sp)
 2001d40:	d9014b17 	ldw	r4,1324(sp)
 2001d44:	d9c14017 	ldw	r7,1280(sp)
 2001d48:	1100000d 	sth	r4,0(r2)
 2001d4c:	0039f906 	br	2000534 <___vfprintf_internal_r+0x170>
 2001d50:	d9014f17 	ldw	r4,1340(sp)
 2001d54:	b00b883a 	mov	r5,r22
 2001d58:	d9800c04 	addi	r6,sp,48
 2001d5c:	200036c0 	call	200036c <__sprint_r>
 2001d60:	103b501e 	bne	r2,zero,2000aa4 <___vfprintf_internal_r+0x6e0>
 2001d64:	dc800e17 	ldw	r18,56(sp)
 2001d68:	dc400d17 	ldw	r17,52(sp)
 2001d6c:	d9000517 	ldw	r4,20(sp)
 2001d70:	d8c01904 	addi	r3,sp,100
 2001d74:	003f2d06 	br	2001a2c <___vfprintf_internal_r+0x1668>
 2001d78:	00800184 	movi	r2,6
 2001d7c:	14c09a36 	bltu	r2,r19,2001fe8 <___vfprintf_internal_r+0x1c24>
 2001d80:	dcc14515 	stw	r19,1300(sp)
 2001d84:	9800010e 	bge	r19,zero,2001d8c <___vfprintf_internal_r+0x19c8>
 2001d88:	d8014515 	stw	zero,1300(sp)
 2001d8c:	00808074 	movhi	r2,513
 2001d90:	10856804 	addi	r2,r2,5536
 2001d94:	980f883a 	mov	r7,r19
 2001d98:	d8814115 	stw	r2,1284(sp)
 2001d9c:	003a7806 	br	2000780 <___vfprintf_internal_r+0x3bc>
 2001da0:	00bfffc4 	movi	r2,-1
 2001da4:	9880e226 	beq	r19,r2,2002130 <___vfprintf_internal_r+0x1d6c>
 2001da8:	d9414d17 	ldw	r5,1332(sp)
 2001dac:	008019c4 	movi	r2,103
 2001db0:	2880dc26 	beq	r5,r2,2002124 <___vfprintf_internal_r+0x1d60>
 2001db4:	008011c4 	movi	r2,71
 2001db8:	2880da26 	beq	r5,r2,2002124 <___vfprintf_internal_r+0x1d60>
 2001dbc:	d9414c17 	ldw	r5,1328(sp)
 2001dc0:	d9014317 	ldw	r4,1292(sp)
 2001dc4:	d9814217 	ldw	r6,1288(sp)
 2001dc8:	29404014 	ori	r5,r5,256
 2001dcc:	d9414c15 	stw	r5,1328(sp)
 2001dd0:	2000cc16 	blt	r4,zero,2002104 <___vfprintf_internal_r+0x1d40>
 2001dd4:	3021883a 	mov	r16,r6
 2001dd8:	2023883a 	mov	r17,r4
 2001ddc:	0039883a 	mov	fp,zero
 2001de0:	d9414d17 	ldw	r5,1332(sp)
 2001de4:	00801984 	movi	r2,102
 2001de8:	2880b726 	beq	r5,r2,20020c8 <___vfprintf_internal_r+0x1d04>
 2001dec:	00801184 	movi	r2,70
 2001df0:	2880b526 	beq	r5,r2,20020c8 <___vfprintf_internal_r+0x1d04>
 2001df4:	00801944 	movi	r2,101
 2001df8:	2880c826 	beq	r5,r2,200211c <___vfprintf_internal_r+0x1d58>
 2001dfc:	00801144 	movi	r2,69
 2001e00:	2880c626 	beq	r5,r2,200211c <___vfprintf_internal_r+0x1d58>
 2001e04:	9829883a 	mov	r20,r19
 2001e08:	d9014f17 	ldw	r4,1340(sp)
 2001e0c:	d8800504 	addi	r2,sp,20
 2001e10:	880d883a 	mov	r6,r17
 2001e14:	d8800115 	stw	r2,4(sp)
 2001e18:	d8c00604 	addi	r3,sp,24
 2001e1c:	d8800704 	addi	r2,sp,28
 2001e20:	800b883a 	mov	r5,r16
 2001e24:	01c00084 	movi	r7,2
 2001e28:	d8c00215 	stw	r3,8(sp)
 2001e2c:	d8800315 	stw	r2,12(sp)
 2001e30:	dd000015 	stw	r20,0(sp)
 2001e34:	2003d680 	call	2003d68 <_dtoa_r>
 2001e38:	d9814d17 	ldw	r6,1332(sp)
 2001e3c:	d8814115 	stw	r2,1284(sp)
 2001e40:	008019c4 	movi	r2,103
 2001e44:	30809526 	beq	r6,r2,200209c <___vfprintf_internal_r+0x1cd8>
 2001e48:	d8c14d17 	ldw	r3,1332(sp)
 2001e4c:	008011c4 	movi	r2,71
 2001e50:	18809226 	beq	r3,r2,200209c <___vfprintf_internal_r+0x1cd8>
 2001e54:	d9414117 	ldw	r5,1284(sp)
 2001e58:	d9814d17 	ldw	r6,1332(sp)
 2001e5c:	00801984 	movi	r2,102
 2001e60:	2d25883a 	add	r18,r5,r20
 2001e64:	30808626 	beq	r6,r2,2002080 <___vfprintf_internal_r+0x1cbc>
 2001e68:	00801184 	movi	r2,70
 2001e6c:	30808426 	beq	r6,r2,2002080 <___vfprintf_internal_r+0x1cbc>
 2001e70:	000d883a 	mov	r6,zero
 2001e74:	000f883a 	mov	r7,zero
 2001e78:	880b883a 	mov	r5,r17
 2001e7c:	8009883a 	mov	r4,r16
 2001e80:	200dc540 	call	200dc54 <__eqdf2>
 2001e84:	1000751e 	bne	r2,zero,200205c <___vfprintf_internal_r+0x1c98>
 2001e88:	9005883a 	mov	r2,r18
 2001e8c:	dc800715 	stw	r18,28(sp)
 2001e90:	d9014117 	ldw	r4,1284(sp)
 2001e94:	d9414d17 	ldw	r5,1332(sp)
 2001e98:	00c019c4 	movi	r3,103
 2001e9c:	1125c83a 	sub	r18,r2,r4
 2001ea0:	28c06826 	beq	r5,r3,2002044 <___vfprintf_internal_r+0x1c80>
 2001ea4:	008011c4 	movi	r2,71
 2001ea8:	28806626 	beq	r5,r2,2002044 <___vfprintf_internal_r+0x1c80>
 2001eac:	d9000517 	ldw	r4,20(sp)
 2001eb0:	d8c14d17 	ldw	r3,1332(sp)
 2001eb4:	00801944 	movi	r2,101
 2001eb8:	10c05516 	blt	r2,r3,2002010 <___vfprintf_internal_r+0x1c4c>
 2001ebc:	213fffc4 	addi	r4,r4,-1
 2001ec0:	d9000515 	stw	r4,20(sp)
 2001ec4:	d8c00805 	stb	r3,32(sp)
 2001ec8:	2021883a 	mov	r16,r4
 2001ecc:	2000c116 	blt	r4,zero,20021d4 <___vfprintf_internal_r+0x1e10>
 2001ed0:	00800ac4 	movi	r2,43
 2001ed4:	d8800845 	stb	r2,33(sp)
 2001ed8:	00800244 	movi	r2,9
 2001edc:	1400af0e 	bge	r2,r16,200219c <___vfprintf_internal_r+0x1dd8>
 2001ee0:	1027883a 	mov	r19,r2
 2001ee4:	dc400b84 	addi	r17,sp,46
 2001ee8:	8009883a 	mov	r4,r16
 2001eec:	01400284 	movi	r5,10
 2001ef0:	200e4380 	call	200e438 <__modsi3>
 2001ef4:	10800c04 	addi	r2,r2,48
 2001ef8:	8c7fffc4 	addi	r17,r17,-1
 2001efc:	8009883a 	mov	r4,r16
 2001f00:	01400284 	movi	r5,10
 2001f04:	88800005 	stb	r2,0(r17)
 2001f08:	200e3d80 	call	200e3d8 <__divsi3>
 2001f0c:	1021883a 	mov	r16,r2
 2001f10:	98bff516 	blt	r19,r2,2001ee8 <___vfprintf_internal_r+0x1b24>
 2001f14:	10c00c04 	addi	r3,r2,48
 2001f18:	d88009c4 	addi	r2,sp,39
 2001f1c:	108001c4 	addi	r2,r2,7
 2001f20:	897fffc4 	addi	r5,r17,-1
 2001f24:	88ffffc5 	stb	r3,-1(r17)
 2001f28:	2880a72e 	bgeu	r5,r2,20021c8 <___vfprintf_internal_r+0x1e04>
 2001f2c:	1009883a 	mov	r4,r2
 2001f30:	d9800804 	addi	r6,sp,32
 2001f34:	d8c00884 	addi	r3,sp,34
 2001f38:	28800003 	ldbu	r2,0(r5)
 2001f3c:	29400044 	addi	r5,r5,1
 2001f40:	18800005 	stb	r2,0(r3)
 2001f44:	18c00044 	addi	r3,r3,1
 2001f48:	293ffb36 	bltu	r5,r4,2001f38 <___vfprintf_internal_r+0x1b74>
 2001f4c:	1987c83a 	sub	r3,r3,r6
 2001f50:	00800044 	movi	r2,1
 2001f54:	d8c14815 	stw	r3,1312(sp)
 2001f58:	90cf883a 	add	r7,r18,r3
 2001f5c:	1480960e 	bge	r2,r18,20021b8 <___vfprintf_internal_r+0x1df4>
 2001f60:	39c00044 	addi	r7,r7,1
 2001f64:	d9c14515 	stw	r7,1300(sp)
 2001f68:	38003416 	blt	r7,zero,200203c <___vfprintf_internal_r+0x1c78>
 2001f6c:	e0803fcc 	andi	r2,fp,255
 2001f70:	1080201c 	xori	r2,r2,128
 2001f74:	10bfe004 	addi	r2,r2,-128
 2001f78:	10004e26 	beq	r2,zero,20020b4 <___vfprintf_internal_r+0x1cf0>
 2001f7c:	00800b44 	movi	r2,45
 2001f80:	dc814715 	stw	r18,1308(sp)
 2001f84:	d8014615 	stw	zero,1304(sp)
 2001f88:	d8800405 	stb	r2,16(sp)
 2001f8c:	003bb106 	br	2000e54 <___vfprintf_internal_r+0xa90>
 2001f90:	00800b44 	movi	r2,45
 2001f94:	d8800405 	stb	r2,16(sp)
 2001f98:	003d3306 	br	2001468 <___vfprintf_internal_r+0x10a4>
 2001f9c:	d9014f17 	ldw	r4,1340(sp)
 2001fa0:	b00b883a 	mov	r5,r22
 2001fa4:	d9800c04 	addi	r6,sp,48
 2001fa8:	200036c0 	call	200036c <__sprint_r>
 2001fac:	103abd1e 	bne	r2,zero,2000aa4 <___vfprintf_internal_r+0x6e0>
 2001fb0:	003abb06 	br	2000aa0 <___vfprintf_internal_r+0x6dc>
 2001fb4:	38800017 	ldw	r2,0(r7)
 2001fb8:	39c00104 	addi	r7,r7,4
 2001fbc:	d9c14015 	stw	r7,1280(sp)
 2001fc0:	d9414b17 	ldw	r5,1324(sp)
 2001fc4:	d9c14017 	ldw	r7,1280(sp)
 2001fc8:	11400015 	stw	r5,0(r2)
 2001fcc:	00395906 	br	2000534 <___vfprintf_internal_r+0x170>
 2001fd0:	980f883a 	mov	r7,r19
 2001fd4:	dcc14515 	stw	r19,1300(sp)
 2001fd8:	d8014615 	stw	zero,1304(sp)
 2001fdc:	003b9b06 	br	2000e4c <___vfprintf_internal_r+0xa88>
 2001fe0:	0027883a 	mov	r19,zero
 2001fe4:	00397806 	br	20005c8 <___vfprintf_internal_r+0x204>
 2001fe8:	00c08074 	movhi	r3,513
 2001fec:	18c56804 	addi	r3,r3,5536
 2001ff0:	100f883a 	mov	r7,r2
 2001ff4:	d8814515 	stw	r2,1300(sp)
 2001ff8:	d8c14115 	stw	r3,1284(sp)
 2001ffc:	0039e006 	br	2000780 <___vfprintf_internal_r+0x3bc>
 2002000:	00808074 	movhi	r2,513
 2002004:	10856704 	addi	r2,r2,5532
 2002008:	d8814115 	stw	r2,1284(sp)
 200200c:	003d1c06 	br	2001480 <___vfprintf_internal_r+0x10bc>
 2002010:	d9414d17 	ldw	r5,1332(sp)
 2002014:	00801984 	movi	r2,102
 2002018:	28804926 	beq	r5,r2,2002140 <___vfprintf_internal_r+0x1d7c>
 200201c:	200f883a 	mov	r7,r4
 2002020:	24805716 	blt	r4,r18,2002180 <___vfprintf_internal_r+0x1dbc>
 2002024:	d9414c17 	ldw	r5,1328(sp)
 2002028:	2880004c 	andi	r2,r5,1
 200202c:	10000126 	beq	r2,zero,2002034 <___vfprintf_internal_r+0x1c70>
 2002030:	21c00044 	addi	r7,r4,1
 2002034:	d9c14515 	stw	r7,1300(sp)
 2002038:	383fcc0e 	bge	r7,zero,2001f6c <___vfprintf_internal_r+0x1ba8>
 200203c:	d8014515 	stw	zero,1300(sp)
 2002040:	003fca06 	br	2001f6c <___vfprintf_internal_r+0x1ba8>
 2002044:	d9000517 	ldw	r4,20(sp)
 2002048:	00bfff04 	movi	r2,-4
 200204c:	1100480e 	bge	r2,r4,2002170 <___vfprintf_internal_r+0x1dac>
 2002050:	99004716 	blt	r19,r4,2002170 <___vfprintf_internal_r+0x1dac>
 2002054:	d8c14d15 	stw	r3,1332(sp)
 2002058:	003ff006 	br	200201c <___vfprintf_internal_r+0x1c58>
 200205c:	d8800717 	ldw	r2,28(sp)
 2002060:	14bf8b2e 	bgeu	r2,r18,2001e90 <___vfprintf_internal_r+0x1acc>
 2002064:	9007883a 	mov	r3,r18
 2002068:	01000c04 	movi	r4,48
 200206c:	11000005 	stb	r4,0(r2)
 2002070:	10800044 	addi	r2,r2,1
 2002074:	d8800715 	stw	r2,28(sp)
 2002078:	18bffc1e 	bne	r3,r2,200206c <___vfprintf_internal_r+0x1ca8>
 200207c:	003f8406 	br	2001e90 <___vfprintf_internal_r+0x1acc>
 2002080:	d8814117 	ldw	r2,1284(sp)
 2002084:	10c00007 	ldb	r3,0(r2)
 2002088:	00800c04 	movi	r2,48
 200208c:	18805b26 	beq	r3,r2,20021fc <___vfprintf_internal_r+0x1e38>
 2002090:	d9000517 	ldw	r4,20(sp)
 2002094:	9125883a 	add	r18,r18,r4
 2002098:	003f7506 	br	2001e70 <___vfprintf_internal_r+0x1aac>
 200209c:	d9014c17 	ldw	r4,1328(sp)
 20020a0:	2080004c 	andi	r2,r4,1
 20020a4:	1005003a 	cmpeq	r2,r2,zero
 20020a8:	103f6a26 	beq	r2,zero,2001e54 <___vfprintf_internal_r+0x1a90>
 20020ac:	d8800717 	ldw	r2,28(sp)
 20020b0:	003f7706 	br	2001e90 <___vfprintf_internal_r+0x1acc>
 20020b4:	d9c14515 	stw	r7,1300(sp)
 20020b8:	38004d16 	blt	r7,zero,20021f0 <___vfprintf_internal_r+0x1e2c>
 20020bc:	dc814715 	stw	r18,1308(sp)
 20020c0:	d8014615 	stw	zero,1304(sp)
 20020c4:	003b6106 	br	2000e4c <___vfprintf_internal_r+0xa88>
 20020c8:	d9014f17 	ldw	r4,1340(sp)
 20020cc:	d8800504 	addi	r2,sp,20
 20020d0:	d8800115 	stw	r2,4(sp)
 20020d4:	d8c00604 	addi	r3,sp,24
 20020d8:	d8800704 	addi	r2,sp,28
 20020dc:	800b883a 	mov	r5,r16
 20020e0:	880d883a 	mov	r6,r17
 20020e4:	01c000c4 	movi	r7,3
 20020e8:	d8c00215 	stw	r3,8(sp)
 20020ec:	d8800315 	stw	r2,12(sp)
 20020f0:	dcc00015 	stw	r19,0(sp)
 20020f4:	9829883a 	mov	r20,r19
 20020f8:	2003d680 	call	2003d68 <_dtoa_r>
 20020fc:	d8814115 	stw	r2,1284(sp)
 2002100:	003f5106 	br	2001e48 <___vfprintf_internal_r+0x1a84>
 2002104:	d8c14217 	ldw	r3,1288(sp)
 2002108:	d9014317 	ldw	r4,1292(sp)
 200210c:	07000b44 	movi	fp,45
 2002110:	1821883a 	mov	r16,r3
 2002114:	2460003c 	xorhi	r17,r4,32768
 2002118:	003f3106 	br	2001de0 <___vfprintf_internal_r+0x1a1c>
 200211c:	9d000044 	addi	r20,r19,1
 2002120:	003f3906 	br	2001e08 <___vfprintf_internal_r+0x1a44>
 2002124:	983f251e 	bne	r19,zero,2001dbc <___vfprintf_internal_r+0x19f8>
 2002128:	04c00044 	movi	r19,1
 200212c:	003f2306 	br	2001dbc <___vfprintf_internal_r+0x19f8>
 2002130:	04c00184 	movi	r19,6
 2002134:	003f2106 	br	2001dbc <___vfprintf_internal_r+0x19f8>
 2002138:	d8014515 	stw	zero,1300(sp)
 200213c:	003eee06 	br	2001cf8 <___vfprintf_internal_r+0x1934>
 2002140:	200f883a 	mov	r7,r4
 2002144:	0100370e 	bge	zero,r4,2002224 <___vfprintf_internal_r+0x1e60>
 2002148:	9800031e 	bne	r19,zero,2002158 <___vfprintf_internal_r+0x1d94>
 200214c:	d9814c17 	ldw	r6,1328(sp)
 2002150:	3080004c 	andi	r2,r6,1
 2002154:	103fb726 	beq	r2,zero,2002034 <___vfprintf_internal_r+0x1c70>
 2002158:	20800044 	addi	r2,r4,1
 200215c:	98a7883a 	add	r19,r19,r2
 2002160:	dcc14515 	stw	r19,1300(sp)
 2002164:	980f883a 	mov	r7,r19
 2002168:	983f800e 	bge	r19,zero,2001f6c <___vfprintf_internal_r+0x1ba8>
 200216c:	003fb306 	br	200203c <___vfprintf_internal_r+0x1c78>
 2002170:	d9814d17 	ldw	r6,1332(sp)
 2002174:	31bfff84 	addi	r6,r6,-2
 2002178:	d9814d15 	stw	r6,1332(sp)
 200217c:	003f4c06 	br	2001eb0 <___vfprintf_internal_r+0x1aec>
 2002180:	0100180e 	bge	zero,r4,20021e4 <___vfprintf_internal_r+0x1e20>
 2002184:	00800044 	movi	r2,1
 2002188:	1485883a 	add	r2,r2,r18
 200218c:	d8814515 	stw	r2,1300(sp)
 2002190:	100f883a 	mov	r7,r2
 2002194:	103f750e 	bge	r2,zero,2001f6c <___vfprintf_internal_r+0x1ba8>
 2002198:	003fa806 	br	200203c <___vfprintf_internal_r+0x1c78>
 200219c:	80c00c04 	addi	r3,r16,48
 20021a0:	00800c04 	movi	r2,48
 20021a4:	d8c008c5 	stb	r3,35(sp)
 20021a8:	d9800804 	addi	r6,sp,32
 20021ac:	d8c00904 	addi	r3,sp,36
 20021b0:	d8800885 	stb	r2,34(sp)
 20021b4:	003f6506 	br	2001f4c <___vfprintf_internal_r+0x1b88>
 20021b8:	d9014c17 	ldw	r4,1328(sp)
 20021bc:	2084703a 	and	r2,r4,r2
 20021c0:	103f9c26 	beq	r2,zero,2002034 <___vfprintf_internal_r+0x1c70>
 20021c4:	003f6606 	br	2001f60 <___vfprintf_internal_r+0x1b9c>
 20021c8:	d9800804 	addi	r6,sp,32
 20021cc:	d8c00884 	addi	r3,sp,34
 20021d0:	003f5e06 	br	2001f4c <___vfprintf_internal_r+0x1b88>
 20021d4:	00800b44 	movi	r2,45
 20021d8:	0121c83a 	sub	r16,zero,r4
 20021dc:	d8800845 	stb	r2,33(sp)
 20021e0:	003f3d06 	br	2001ed8 <___vfprintf_internal_r+0x1b14>
 20021e4:	00800084 	movi	r2,2
 20021e8:	1105c83a 	sub	r2,r2,r4
 20021ec:	003fe606 	br	2002188 <___vfprintf_internal_r+0x1dc4>
 20021f0:	d8014515 	stw	zero,1300(sp)
 20021f4:	dc814715 	stw	r18,1308(sp)
 20021f8:	003fb106 	br	20020c0 <___vfprintf_internal_r+0x1cfc>
 20021fc:	000d883a 	mov	r6,zero
 2002200:	000f883a 	mov	r7,zero
 2002204:	8009883a 	mov	r4,r16
 2002208:	880b883a 	mov	r5,r17
 200220c:	200dcdc0 	call	200dcdc <__nedf2>
 2002210:	103f9f26 	beq	r2,zero,2002090 <___vfprintf_internal_r+0x1ccc>
 2002214:	00800044 	movi	r2,1
 2002218:	1509c83a 	sub	r4,r2,r20
 200221c:	d9000515 	stw	r4,20(sp)
 2002220:	003f9b06 	br	2002090 <___vfprintf_internal_r+0x1ccc>
 2002224:	98000d1e 	bne	r19,zero,200225c <___vfprintf_internal_r+0x1e98>
 2002228:	d8c14c17 	ldw	r3,1328(sp)
 200222c:	1880004c 	andi	r2,r3,1
 2002230:	10000a1e 	bne	r2,zero,200225c <___vfprintf_internal_r+0x1e98>
 2002234:	01000044 	movi	r4,1
 2002238:	200f883a 	mov	r7,r4
 200223c:	d9014515 	stw	r4,1300(sp)
 2002240:	003f4a06 	br	2001f6c <___vfprintf_internal_r+0x1ba8>
 2002244:	3cc00017 	ldw	r19,0(r7)
 2002248:	39c00104 	addi	r7,r7,4
 200224c:	983d0e0e 	bge	r19,zero,2001688 <___vfprintf_internal_r+0x12c4>
 2002250:	b8c00007 	ldb	r3,0(r23)
 2002254:	04ffffc4 	movi	r19,-1
 2002258:	0038d906 	br	20005c0 <___vfprintf_internal_r+0x1fc>
 200225c:	9cc00084 	addi	r19,r19,2
 2002260:	dcc14515 	stw	r19,1300(sp)
 2002264:	980f883a 	mov	r7,r19
 2002268:	983f400e 	bge	r19,zero,2001f6c <___vfprintf_internal_r+0x1ba8>
 200226c:	003f7306 	br	200203c <___vfprintf_internal_r+0x1c78>

02002270 <__vfprintf_internal>:
 2002270:	00808074 	movhi	r2,513
 2002274:	10899604 	addi	r2,r2,9816
 2002278:	2013883a 	mov	r9,r4
 200227c:	11000017 	ldw	r4,0(r2)
 2002280:	2805883a 	mov	r2,r5
 2002284:	300f883a 	mov	r7,r6
 2002288:	480b883a 	mov	r5,r9
 200228c:	100d883a 	mov	r6,r2
 2002290:	20003c41 	jmpi	20003c4 <___vfprintf_internal_r>

02002294 <__svfscanf_r>:
 2002294:	deff4e04 	addi	sp,sp,-712
 2002298:	dd80ae15 	stw	r22,696(sp)
 200229c:	dd00ac15 	stw	r20,688(sp)
 20022a0:	dc40a915 	stw	r17,676(sp)
 20022a4:	dc00a815 	stw	r16,672(sp)
 20022a8:	dfc0b115 	stw	ra,708(sp)
 20022ac:	df00b015 	stw	fp,704(sp)
 20022b0:	ddc0af15 	stw	r23,700(sp)
 20022b4:	dd40ad15 	stw	r21,692(sp)
 20022b8:	dcc0ab15 	stw	r19,684(sp)
 20022bc:	dc80aa15 	stw	r18,680(sp)
 20022c0:	202d883a 	mov	r22,r4
 20022c4:	2821883a 	mov	r16,r5
 20022c8:	d9c0a415 	stw	r7,656(sp)
 20022cc:	3029883a 	mov	r20,r6
 20022d0:	d800a215 	stw	zero,648(sp)
 20022d4:	0023883a 	mov	r17,zero
 20022d8:	d800a115 	stw	zero,644(sp)
 20022dc:	d800a015 	stw	zero,640(sp)
 20022e0:	a1000007 	ldb	r4,0(r20)
 20022e4:	d9000115 	stw	r4,4(sp)
 20022e8:	20001f26 	beq	r4,zero,2002368 <__svfscanf_r+0xd4>
 20022ec:	04808074 	movhi	r18,513
 20022f0:	94899504 	addi	r18,r18,9812
 20022f4:	91800017 	ldw	r6,0(r18)
 20022f8:	a5000044 	addi	r20,r20,1
 20022fc:	3107883a 	add	r3,r6,r4
 2002300:	18800003 	ldbu	r2,0(r3)
 2002304:	1080020c 	andi	r2,r2,8
 2002308:	10002426 	beq	r2,zero,200239c <__svfscanf_r+0x108>
 200230c:	80c00117 	ldw	r3,4(r16)
 2002310:	00c00e0e 	bge	zero,r3,200234c <__svfscanf_r+0xb8>
 2002314:	81400017 	ldw	r5,0(r16)
 2002318:	90800017 	ldw	r2,0(r18)
 200231c:	28c00003 	ldbu	r3,0(r5)
 2002320:	1887883a 	add	r3,r3,r2
 2002324:	19000003 	ldbu	r4,0(r3)
 2002328:	2100020c 	andi	r4,r4,8
 200232c:	203fec26 	beq	r4,zero,20022e0 <__svfscanf_r+0x4c>
 2002330:	80c00117 	ldw	r3,4(r16)
 2002334:	29800044 	addi	r6,r5,1
 2002338:	8c400044 	addi	r17,r17,1
 200233c:	18ffffc4 	addi	r3,r3,-1
 2002340:	81800015 	stw	r6,0(r16)
 2002344:	80c00115 	stw	r3,4(r16)
 2002348:	00fff216 	blt	zero,r3,2002314 <__svfscanf_r+0x80>
 200234c:	b009883a 	mov	r4,r22
 2002350:	800b883a 	mov	r5,r16
 2002354:	200884c0 	call	200884c <__srefill_r>
 2002358:	103fee26 	beq	r2,zero,2002314 <__svfscanf_r+0x80>
 200235c:	a1000007 	ldb	r4,0(r20)
 2002360:	d9000115 	stw	r4,4(sp)
 2002364:	203fe11e 	bne	r4,zero,20022ec <__svfscanf_r+0x58>
 2002368:	d880a217 	ldw	r2,648(sp)
 200236c:	dfc0b117 	ldw	ra,708(sp)
 2002370:	df00b017 	ldw	fp,704(sp)
 2002374:	ddc0af17 	ldw	r23,700(sp)
 2002378:	dd80ae17 	ldw	r22,696(sp)
 200237c:	dd40ad17 	ldw	r21,692(sp)
 2002380:	dd00ac17 	ldw	r20,688(sp)
 2002384:	dcc0ab17 	ldw	r19,684(sp)
 2002388:	dc80aa17 	ldw	r18,680(sp)
 200238c:	dc40a917 	ldw	r17,676(sp)
 2002390:	dc00a817 	ldw	r16,672(sp)
 2002394:	dec0b204 	addi	sp,sp,712
 2002398:	f800283a 	ret
 200239c:	00800944 	movi	r2,37
 20023a0:	20801626 	beq	r4,r2,20023fc <__svfscanf_r+0x168>
 20023a4:	80800117 	ldw	r2,4(r16)
 20023a8:	00800b0e 	bge	zero,r2,20023d8 <__svfscanf_r+0x144>
 20023ac:	81000017 	ldw	r4,0(r16)
 20023b0:	a0ffffc7 	ldb	r3,-1(r20)
 20023b4:	20800003 	ldbu	r2,0(r4)
 20023b8:	10ffeb1e 	bne	r2,r3,2002368 <__svfscanf_r+0xd4>
 20023bc:	80c00117 	ldw	r3,4(r16)
 20023c0:	21800044 	addi	r6,r4,1
 20023c4:	8c400044 	addi	r17,r17,1
 20023c8:	18ffffc4 	addi	r3,r3,-1
 20023cc:	80c00115 	stw	r3,4(r16)
 20023d0:	81800015 	stw	r6,0(r16)
 20023d4:	003fc206 	br	20022e0 <__svfscanf_r+0x4c>
 20023d8:	b009883a 	mov	r4,r22
 20023dc:	800b883a 	mov	r5,r16
 20023e0:	200884c0 	call	200884c <__srefill_r>
 20023e4:	103ff126 	beq	r2,zero,20023ac <__svfscanf_r+0x118>
 20023e8:	d900a217 	ldw	r4,648(sp)
 20023ec:	2004c91e 	bne	r4,zero,2003714 <__svfscanf_r+0x1480>
 20023f0:	00bfffc4 	movi	r2,-1
 20023f4:	d880a215 	stw	r2,648(sp)
 20023f8:	003fdb06 	br	2002368 <__svfscanf_r+0xd4>
 20023fc:	d800a315 	stw	zero,652(sp)
 2002400:	0027883a 	mov	r19,zero
 2002404:	a0c00003 	ldbu	r3,0(r20)
 2002408:	00801e04 	movi	r2,120
 200240c:	a5000044 	addi	r20,r20,1
 2002410:	19403fcc 	andi	r5,r3,255
 2002414:	2940201c 	xori	r5,r5,128
 2002418:	297fe004 	addi	r5,r5,-128
 200241c:	10c08036 	bltu	r2,r3,2002620 <__svfscanf_r+0x38c>
 2002420:	18c5883a 	add	r2,r3,r3
 2002424:	1085883a 	add	r2,r2,r2
 2002428:	00c08034 	movhi	r3,512
 200242c:	18c90f04 	addi	r3,r3,9276
 2002430:	10c5883a 	add	r2,r2,r3
 2002434:	11000017 	ldw	r4,0(r2)
 2002438:	2000683a 	jmp	r4
 200243c:	020023f0 	cmpltui	r8,zero,143
 2002440:	02002620 	cmpeqi	r8,zero,152
 2002444:	02002620 	cmpeqi	r8,zero,152
 2002448:	02002620 	cmpeqi	r8,zero,152
 200244c:	02002620 	cmpeqi	r8,zero,152
 2002450:	02002620 	cmpeqi	r8,zero,152
 2002454:	02002620 	cmpeqi	r8,zero,152
 2002458:	02002620 	cmpeqi	r8,zero,152
 200245c:	02002620 	cmpeqi	r8,zero,152
 2002460:	02002620 	cmpeqi	r8,zero,152
 2002464:	02002620 	cmpeqi	r8,zero,152
 2002468:	02002620 	cmpeqi	r8,zero,152
 200246c:	02002620 	cmpeqi	r8,zero,152
 2002470:	02002620 	cmpeqi	r8,zero,152
 2002474:	02002620 	cmpeqi	r8,zero,152
 2002478:	02002620 	cmpeqi	r8,zero,152
 200247c:	02002620 	cmpeqi	r8,zero,152
 2002480:	02002620 	cmpeqi	r8,zero,152
 2002484:	02002620 	cmpeqi	r8,zero,152
 2002488:	02002620 	cmpeqi	r8,zero,152
 200248c:	02002620 	cmpeqi	r8,zero,152
 2002490:	02002620 	cmpeqi	r8,zero,152
 2002494:	02002620 	cmpeqi	r8,zero,152
 2002498:	02002620 	cmpeqi	r8,zero,152
 200249c:	02002620 	cmpeqi	r8,zero,152
 20024a0:	02002620 	cmpeqi	r8,zero,152
 20024a4:	02002620 	cmpeqi	r8,zero,152
 20024a8:	02002620 	cmpeqi	r8,zero,152
 20024ac:	02002620 	cmpeqi	r8,zero,152
 20024b0:	02002620 	cmpeqi	r8,zero,152
 20024b4:	02002620 	cmpeqi	r8,zero,152
 20024b8:	02002620 	cmpeqi	r8,zero,152
 20024bc:	02002620 	cmpeqi	r8,zero,152
 20024c0:	02002620 	cmpeqi	r8,zero,152
 20024c4:	02002620 	cmpeqi	r8,zero,152
 20024c8:	02002620 	cmpeqi	r8,zero,152
 20024cc:	02002620 	cmpeqi	r8,zero,152
 20024d0:	020023a4 	muli	r8,zero,142
 20024d4:	02002620 	cmpeqi	r8,zero,152
 20024d8:	02002620 	cmpeqi	r8,zero,152
 20024dc:	02002620 	cmpeqi	r8,zero,152
 20024e0:	02002620 	cmpeqi	r8,zero,152
 20024e4:	02003644 	movi	r8,217
 20024e8:	02002620 	cmpeqi	r8,zero,152
 20024ec:	02002620 	cmpeqi	r8,zero,152
 20024f0:	02002620 	cmpeqi	r8,zero,152
 20024f4:	02002620 	cmpeqi	r8,zero,152
 20024f8:	02002620 	cmpeqi	r8,zero,152
 20024fc:	02003040 	call	200304 <__reset-0x1dffcfc>
 2002500:	02003040 	call	200304 <__reset-0x1dffcfc>
 2002504:	02003040 	call	200304 <__reset-0x1dffcfc>
 2002508:	02003040 	call	200304 <__reset-0x1dffcfc>
 200250c:	02003040 	call	200304 <__reset-0x1dffcfc>
 2002510:	02003040 	call	200304 <__reset-0x1dffcfc>
 2002514:	02003040 	call	200304 <__reset-0x1dffcfc>
 2002518:	02003040 	call	200304 <__reset-0x1dffcfc>
 200251c:	02003040 	call	200304 <__reset-0x1dffcfc>
 2002520:	02003040 	call	200304 <__reset-0x1dffcfc>
 2002524:	02002620 	cmpeqi	r8,zero,152
 2002528:	02002620 	cmpeqi	r8,zero,152
 200252c:	02002620 	cmpeqi	r8,zero,152
 2002530:	02002620 	cmpeqi	r8,zero,152
 2002534:	02002620 	cmpeqi	r8,zero,152
 2002538:	02002620 	cmpeqi	r8,zero,152
 200253c:	02002620 	cmpeqi	r8,zero,152
 2002540:	02002620 	cmpeqi	r8,zero,152
 2002544:	02002620 	cmpeqi	r8,zero,152
 2002548:	02002620 	cmpeqi	r8,zero,152
 200254c:	020037c0 	call	20037c <__reset-0x1dffc84>
 2002550:	020037b8 	rdprs	r8,zero,222
 2002554:	02002620 	cmpeqi	r8,zero,152
 2002558:	020037b8 	rdprs	r8,zero,222
 200255c:	02002620 	cmpeqi	r8,zero,152
 2002560:	02002620 	cmpeqi	r8,zero,152
 2002564:	02002620 	cmpeqi	r8,zero,152
 2002568:	02002620 	cmpeqi	r8,zero,152
 200256c:	02003850 	cmplti	r8,zero,225
 2002570:	02002620 	cmpeqi	r8,zero,152
 2002574:	02002620 	cmpeqi	r8,zero,152
 2002578:	02003808 	cmpgei	r8,zero,224
 200257c:	02002620 	cmpeqi	r8,zero,152
 2002580:	02002620 	cmpeqi	r8,zero,152
 2002584:	02002620 	cmpeqi	r8,zero,152
 2002588:	02002620 	cmpeqi	r8,zero,152
 200258c:	02002620 	cmpeqi	r8,zero,152
 2002590:	02002620 	cmpeqi	r8,zero,152
 2002594:	02002620 	cmpeqi	r8,zero,152
 2002598:	02002620 	cmpeqi	r8,zero,152
 200259c:	0200364c 	andi	r8,zero,217
 20025a0:	02002620 	cmpeqi	r8,zero,152
 20025a4:	02002620 	cmpeqi	r8,zero,152
 20025a8:	020037ec 	andhi	r8,zero,223
 20025ac:	02002620 	cmpeqi	r8,zero,152
 20025b0:	02002620 	cmpeqi	r8,zero,152
 20025b4:	02002620 	cmpeqi	r8,zero,152
 20025b8:	02002620 	cmpeqi	r8,zero,152
 20025bc:	02002620 	cmpeqi	r8,zero,152
 20025c0:	02002620 	cmpeqi	r8,zero,152
 20025c4:	02002620 	cmpeqi	r8,zero,152
 20025c8:	020037e0 	cmpeqi	r8,zero,223
 20025cc:	020037c4 	movi	r8,223
 20025d0:	020037b8 	rdprs	r8,zero,222
 20025d4:	020037b8 	rdprs	r8,zero,222
 20025d8:	020037b8 	rdprs	r8,zero,222
 20025dc:	020037b0 	cmpltui	r8,zero,222
 20025e0:	020038a4 	muli	r8,zero,226
 20025e4:	02002620 	cmpeqi	r8,zero,152
 20025e8:	02002620 	cmpeqi	r8,zero,152
 20025ec:	02003890 	cmplti	r8,zero,226
 20025f0:	02002620 	cmpeqi	r8,zero,152
 20025f4:	02003828 	cmpgeui	r8,zero,224
 20025f8:	0200380c 	andi	r8,zero,224
 20025fc:	02003860 	cmpeqi	r8,zero,225
 2002600:	02002620 	cmpeqi	r8,zero,152
 2002604:	02002620 	cmpeqi	r8,zero,152
 2002608:	02003858 	cmpnei	r8,zero,225
 200260c:	02002620 	cmpeqi	r8,zero,152
 2002610:	02002b90 	cmplti	r8,zero,174
 2002614:	02002620 	cmpeqi	r8,zero,152
 2002618:	02002620 	cmpeqi	r8,zero,152
 200261c:	0200364c 	andi	r8,zero,217
 2002620:	2987883a 	add	r3,r5,r6
 2002624:	18800003 	ldbu	r2,0(r3)
 2002628:	1080004c 	andi	r2,r2,1
 200262c:	1005003a 	cmpeq	r2,r2,zero
 2002630:	10002c26 	beq	r2,zero,20026e4 <__svfscanf_r+0x450>
 2002634:	01008074 	movhi	r4,513
 2002638:	21296404 	addi	r4,r4,-23152
 200263c:	00800284 	movi	r2,10
 2002640:	d900a015 	stw	r4,640(sp)
 2002644:	054000c4 	movi	r21,3
 2002648:	d880a115 	stw	r2,644(sp)
 200264c:	80c00117 	ldw	r3,4(r16)
 2002650:	00c14a0e 	bge	zero,r3,2002b7c <__svfscanf_r+0x8e8>
 2002654:	9880100c 	andi	r2,r19,64
 2002658:	10001326 	beq	r2,zero,20026a8 <__svfscanf_r+0x414>
 200265c:	00800104 	movi	r2,4
 2002660:	157f1f36 	bltu	r2,r21,20022e0 <__svfscanf_r+0x4c>
 2002664:	ad45883a 	add	r2,r21,r21
 2002668:	1085883a 	add	r2,r2,r2
 200266c:	00c08034 	movhi	r3,512
 2002670:	18c9a004 	addi	r3,r3,9856
 2002674:	10c5883a 	add	r2,r2,r3
 2002678:	11000017 	ldw	r4,0(r2)
 200267c:	2000683a 	jmp	r4
 2002680:	020026ec 	andhi	r8,zero,155
 2002684:	020027f8 	rdprs	r8,zero,159
 2002688:	0200286c 	andhi	r8,zero,161
 200268c:	02002b58 	cmpnei	r8,zero,173
 2002690:	020029a4 	muli	r8,zero,166
 2002694:	b009883a 	mov	r4,r22
 2002698:	800b883a 	mov	r5,r16
 200269c:	200884c0 	call	200884c <__srefill_r>
 20026a0:	103f511e 	bne	r2,zero,20023e8 <__svfscanf_r+0x154>
 20026a4:	8c400044 	addi	r17,r17,1
 20026a8:	81400017 	ldw	r5,0(r16)
 20026ac:	90800017 	ldw	r2,0(r18)
 20026b0:	28c00003 	ldbu	r3,0(r5)
 20026b4:	1887883a 	add	r3,r3,r2
 20026b8:	19000003 	ldbu	r4,0(r3)
 20026bc:	2100020c 	andi	r4,r4,8
 20026c0:	203fe626 	beq	r4,zero,200265c <__svfscanf_r+0x3c8>
 20026c4:	80c00117 	ldw	r3,4(r16)
 20026c8:	18ffffc4 	addi	r3,r3,-1
 20026cc:	80c00115 	stw	r3,4(r16)
 20026d0:	00fff00e 	bge	zero,r3,2002694 <__svfscanf_r+0x400>
 20026d4:	29800044 	addi	r6,r5,1
 20026d8:	8c400044 	addi	r17,r17,1
 20026dc:	81800015 	stw	r6,0(r16)
 20026e0:	003ff106 	br	20026a8 <__svfscanf_r+0x414>
 20026e4:	9cc00054 	ori	r19,r19,1
 20026e8:	003fd206 	br	2002634 <__svfscanf_r+0x3a0>
 20026ec:	d8c0a317 	ldw	r3,652(sp)
 20026f0:	1800021e 	bne	r3,zero,20026fc <__svfscanf_r+0x468>
 20026f4:	01000044 	movi	r4,1
 20026f8:	d900a315 	stw	r4,652(sp)
 20026fc:	9880004c 	andi	r2,r19,1
 2002700:	1005003a 	cmpeq	r2,r2,zero
 2002704:	1003d91e 	bne	r2,zero,200366c <__svfscanf_r+0x13d8>
 2002708:	9d40040c 	andi	r21,r19,16
 200270c:	a839003a 	cmpeq	fp,r21,zero
 2002710:	e0042526 	beq	fp,zero,20037a8 <__svfscanf_r+0x1514>
 2002714:	d880a417 	ldw	r2,656(sp)
 2002718:	14c00017 	ldw	r19,0(r2)
 200271c:	10800104 	addi	r2,r2,4
 2002720:	d880a415 	stw	r2,656(sp)
 2002724:	d8c0a317 	ldw	r3,652(sp)
 2002728:	18041a26 	beq	r3,zero,2003794 <__svfscanf_r+0x1500>
 200272c:	01008074 	movhi	r4,513
 2002730:	21099804 	addi	r4,r4,9824
 2002734:	20800017 	ldw	r2,0(r4)
 2002738:	103f2b26 	beq	r2,zero,20023e8 <__svfscanf_r+0x154>
 200273c:	d8804404 	addi	r2,sp,272
 2002740:	0025883a 	mov	r18,zero
 2002744:	d880a615 	stw	r2,664(sp)
 2002748:	05ffffc4 	movi	r23,-1
 200274c:	80800017 	ldw	r2,0(r16)
 2002750:	80c00117 	ldw	r3,4(r16)
 2002754:	d900a617 	ldw	r4,664(sp)
 2002758:	12000003 	ldbu	r8,0(r2)
 200275c:	18ffffc4 	addi	r3,r3,-1
 2002760:	11800044 	addi	r6,r2,1
 2002764:	248f883a 	add	r7,r4,r18
 2002768:	80c00115 	stw	r3,4(r16)
 200276c:	81800015 	stw	r6,0(r16)
 2002770:	3a000005 	stb	r8,0(r7)
 2002774:	d9000204 	addi	r4,sp,8
 2002778:	000b883a 	mov	r5,zero
 200277c:	01800204 	movi	r6,8
 2002780:	20071cc0 	call	20071cc <memset>
 2002784:	d980a617 	ldw	r6,664(sp)
 2002788:	94800044 	addi	r18,r18,1
 200278c:	d8800204 	addi	r2,sp,8
 2002790:	b009883a 	mov	r4,r22
 2002794:	980b883a 	mov	r5,r19
 2002798:	900f883a 	mov	r7,r18
 200279c:	d8800015 	stw	r2,0(sp)
 20027a0:	2006e680 	call	2006e68 <_mbrtowc_r>
 20027a4:	1007883a 	mov	r3,r2
 20027a8:	15ff0f26 	beq	r2,r23,20023e8 <__svfscanf_r+0x154>
 20027ac:	1003f11e 	bne	r2,zero,2003774 <__svfscanf_r+0x14e0>
 20027b0:	a800011e 	bne	r21,zero,20027b8 <__svfscanf_r+0x524>
 20027b4:	98000015 	stw	zero,0(r19)
 20027b8:	d8c0a317 	ldw	r3,652(sp)
 20027bc:	8ca3883a 	add	r17,r17,r18
 20027c0:	18ffffc4 	addi	r3,r3,-1
 20027c4:	d8c0a315 	stw	r3,652(sp)
 20027c8:	e0000126 	beq	fp,zero,20027d0 <__svfscanf_r+0x53c>
 20027cc:	9cc00104 	addi	r19,r19,4
 20027d0:	0025883a 	mov	r18,zero
 20027d4:	80c00117 	ldw	r3,4(r16)
 20027d8:	00c3e90e 	bge	zero,r3,2003780 <__svfscanf_r+0x14ec>
 20027dc:	d900a317 	ldw	r4,652(sp)
 20027e0:	2003ec26 	beq	r4,zero,2003794 <__svfscanf_r+0x1500>
 20027e4:	00c08074 	movhi	r3,513
 20027e8:	18c99804 	addi	r3,r3,9824
 20027ec:	18800017 	ldw	r2,0(r3)
 20027f0:	90bfd61e 	bne	r18,r2,200274c <__svfscanf_r+0x4b8>
 20027f4:	003efc06 	br	20023e8 <__svfscanf_r+0x154>
 20027f8:	d880a317 	ldw	r2,652(sp)
 20027fc:	1000021e 	bne	r2,zero,2002808 <__svfscanf_r+0x574>
 2002800:	00ffffc4 	movi	r3,-1
 2002804:	d8c0a315 	stw	r3,652(sp)
 2002808:	9880040c 	andi	r2,r19,16
 200280c:	10036526 	beq	r2,zero,20035a4 <__svfscanf_r+0x1310>
 2002810:	0027883a 	mov	r19,zero
 2002814:	dd400404 	addi	r21,sp,16
 2002818:	81000017 	ldw	r4,0(r16)
 200281c:	20800003 	ldbu	r2,0(r4)
 2002820:	a885883a 	add	r2,r21,r2
 2002824:	10c00007 	ldb	r3,0(r2)
 2002828:	1803be26 	beq	r3,zero,2003724 <__svfscanf_r+0x1490>
 200282c:	80c00117 	ldw	r3,4(r16)
 2002830:	21800044 	addi	r6,r4,1
 2002834:	d900a317 	ldw	r4,652(sp)
 2002838:	18ffffc4 	addi	r3,r3,-1
 200283c:	9cc00044 	addi	r19,r19,1
 2002840:	81800015 	stw	r6,0(r16)
 2002844:	80c00115 	stw	r3,4(r16)
 2002848:	24c3b626 	beq	r4,r19,2003724 <__svfscanf_r+0x1490>
 200284c:	00fff216 	blt	zero,r3,2002818 <__svfscanf_r+0x584>
 2002850:	b009883a 	mov	r4,r22
 2002854:	800b883a 	mov	r5,r16
 2002858:	200884c0 	call	200884c <__srefill_r>
 200285c:	103fee26 	beq	r2,zero,2002818 <__svfscanf_r+0x584>
 2002860:	983ee126 	beq	r19,zero,20023e8 <__svfscanf_r+0x154>
 2002864:	8ce3883a 	add	r17,r17,r19
 2002868:	003e9d06 	br	20022e0 <__svfscanf_r+0x4c>
 200286c:	d900a317 	ldw	r4,652(sp)
 2002870:	2000021e 	bne	r4,zero,200287c <__svfscanf_r+0x5e8>
 2002874:	00bfffc4 	movi	r2,-1
 2002878:	d880a315 	stw	r2,652(sp)
 200287c:	9880004c 	andi	r2,r19,1
 2002880:	1005003a 	cmpeq	r2,r2,zero
 2002884:	1001f41e 	bne	r2,zero,2003058 <__svfscanf_r+0xdc4>
 2002888:	9dc0040c 	andi	r23,r19,16
 200288c:	b807003a 	cmpeq	r3,r23,zero
 2002890:	d8c0a515 	stw	r3,660(sp)
 2002894:	1803b21e 	bne	r3,zero,2003760 <__svfscanf_r+0x14cc>
 2002898:	dd400104 	addi	r21,sp,4
 200289c:	0027883a 	mov	r19,zero
 20028a0:	073fffc4 	movi	fp,-1
 20028a4:	81400017 	ldw	r5,0(r16)
 20028a8:	90800017 	ldw	r2,0(r18)
 20028ac:	29c00003 	ldbu	r7,0(r5)
 20028b0:	38c03fcc 	andi	r3,r7,255
 20028b4:	1887883a 	add	r3,r3,r2
 20028b8:	19000003 	ldbu	r4,0(r3)
 20028bc:	2100020c 	andi	r4,r4,8
 20028c0:	2000321e 	bne	r4,zero,200298c <__svfscanf_r+0x6f8>
 20028c4:	d8c0a317 	ldw	r3,652(sp)
 20028c8:	18003026 	beq	r3,zero,200298c <__svfscanf_r+0x6f8>
 20028cc:	00808074 	movhi	r2,513
 20028d0:	10899804 	addi	r2,r2,9824
 20028d4:	10c00017 	ldw	r3,0(r2)
 20028d8:	98fec326 	beq	r19,r3,20023e8 <__svfscanf_r+0x154>
 20028dc:	d8c04404 	addi	r3,sp,272
 20028e0:	80800117 	ldw	r2,4(r16)
 20028e4:	d8c0a615 	stw	r3,664(sp)
 20028e8:	d900a617 	ldw	r4,664(sp)
 20028ec:	10ffffc4 	addi	r3,r2,-1
 20028f0:	29800044 	addi	r6,r5,1
 20028f4:	80c00115 	stw	r3,4(r16)
 20028f8:	24c5883a 	add	r2,r4,r19
 20028fc:	81800015 	stw	r6,0(r16)
 2002900:	d9000204 	addi	r4,sp,8
 2002904:	000b883a 	mov	r5,zero
 2002908:	01800204 	movi	r6,8
 200290c:	11c00005 	stb	r7,0(r2)
 2002910:	20071cc0 	call	20071cc <memset>
 2002914:	d980a617 	ldw	r6,664(sp)
 2002918:	9cc00044 	addi	r19,r19,1
 200291c:	d8800204 	addi	r2,sp,8
 2002920:	b009883a 	mov	r4,r22
 2002924:	a80b883a 	mov	r5,r21
 2002928:	980f883a 	mov	r7,r19
 200292c:	d8800015 	stw	r2,0(sp)
 2002930:	2006e680 	call	2006e68 <_mbrtowc_r>
 2002934:	1007883a 	mov	r3,r2
 2002938:	173eab26 	beq	r2,fp,20023e8 <__svfscanf_r+0x154>
 200293c:	1003851e 	bne	r2,zero,2003754 <__svfscanf_r+0x14c0>
 2002940:	a8000015 	stw	zero,0(r21)
 2002944:	a9000017 	ldw	r4,0(r21)
 2002948:	20064a40 	call	20064a4 <iswspace>
 200294c:	1003781e 	bne	r2,zero,2003730 <__svfscanf_r+0x149c>
 2002950:	d900a317 	ldw	r4,652(sp)
 2002954:	d880a517 	ldw	r2,660(sp)
 2002958:	8ce3883a 	add	r17,r17,r19
 200295c:	213fffc4 	addi	r4,r4,-1
 2002960:	d900a315 	stw	r4,652(sp)
 2002964:	10000126 	beq	r2,zero,200296c <__svfscanf_r+0x6d8>
 2002968:	ad400104 	addi	r21,r21,4
 200296c:	0027883a 	mov	r19,zero
 2002970:	80c00117 	ldw	r3,4(r16)
 2002974:	00ffcb16 	blt	zero,r3,20028a4 <__svfscanf_r+0x610>
 2002978:	b009883a 	mov	r4,r22
 200297c:	800b883a 	mov	r5,r16
 2002980:	200884c0 	call	200884c <__srefill_r>
 2002984:	103fc726 	beq	r2,zero,20028a4 <__svfscanf_r+0x610>
 2002988:	983e971e 	bne	r19,zero,20023e8 <__svfscanf_r+0x154>
 200298c:	b83e541e 	bne	r23,zero,20022e0 <__svfscanf_r+0x4c>
 2002990:	d900a217 	ldw	r4,648(sp)
 2002994:	a8000015 	stw	zero,0(r21)
 2002998:	21000044 	addi	r4,r4,1
 200299c:	d900a215 	stw	r4,648(sp)
 20029a0:	003e4f06 	br	20022e0 <__svfscanf_r+0x4c>
 20029a4:	d900a317 	ldw	r4,652(sp)
 20029a8:	00805704 	movi	r2,348
 20029ac:	20ffffc4 	addi	r3,r4,-1
 20029b0:	10c1ed2e 	bgeu	r2,r3,2003168 <__svfscanf_r+0xed4>
 20029b4:	00805744 	movi	r2,349
 20029b8:	21bfa8c4 	addi	r6,r4,-349
 20029bc:	9d41e014 	ori	r21,r19,1920
 20029c0:	d880a315 	stw	r2,652(sp)
 20029c4:	d8c04404 	addi	r3,sp,272
 20029c8:	d8c0a615 	stw	r3,664(sp)
 20029cc:	182f883a 	mov	r23,r3
 20029d0:	d8009f15 	stw	zero,636(sp)
 20029d4:	d8009e15 	stw	zero,632(sp)
 20029d8:	d8009d15 	stw	zero,628(sp)
 20029dc:	d8009c15 	stw	zero,624(sp)
 20029e0:	0039883a 	mov	fp,zero
 20029e4:	0025883a 	mov	r18,zero
 20029e8:	80800017 	ldw	r2,0(r16)
 20029ec:	11400003 	ldbu	r5,0(r2)
 20029f0:	00801384 	movi	r2,78
 20029f4:	28fff544 	addi	r3,r5,-43
 20029f8:	18c03fcc 	andi	r3,r3,255
 20029fc:	10c07d36 	bltu	r2,r3,2002bf4 <__svfscanf_r+0x960>
 2002a00:	18c5883a 	add	r2,r3,r3
 2002a04:	1085883a 	add	r2,r2,r2
 2002a08:	00c08034 	movhi	r3,512
 2002a0c:	18ca8704 	addi	r3,r3,10780
 2002a10:	10c5883a 	add	r2,r2,r3
 2002a14:	11000017 	ldw	r4,0(r2)
 2002a18:	2000683a 	jmp	r4
 2002a1c:	02002bac 	andhi	r8,zero,174
 2002a20:	02002bf4 	movhi	r8,175
 2002a24:	02002bac 	andhi	r8,zero,174
 2002a28:	02002d40 	call	2002d4 <__reset-0x1dffd2c>
 2002a2c:	02002bf4 	movhi	r8,175
 2002a30:	02002d78 	rdprs	r8,zero,181
 2002a34:	02002dac 	andhi	r8,zero,182
 2002a38:	02002dac 	andhi	r8,zero,182
 2002a3c:	02002dac 	andhi	r8,zero,182
 2002a40:	02002dac 	andhi	r8,zero,182
 2002a44:	02002dac 	andhi	r8,zero,182
 2002a48:	02002dac 	andhi	r8,zero,182
 2002a4c:	02002dac 	andhi	r8,zero,182
 2002a50:	02002dac 	andhi	r8,zero,182
 2002a54:	02002dac 	andhi	r8,zero,182
 2002a58:	02002bf4 	movhi	r8,175
 2002a5c:	02002bf4 	movhi	r8,175
 2002a60:	02002bf4 	movhi	r8,175
 2002a64:	02002bf4 	movhi	r8,175
 2002a68:	02002bf4 	movhi	r8,175
 2002a6c:	02002bf4 	movhi	r8,175
 2002a70:	02002bf4 	movhi	r8,175
 2002a74:	02002dcc 	andi	r8,zero,183
 2002a78:	02002bf4 	movhi	r8,175
 2002a7c:	02002bf4 	movhi	r8,175
 2002a80:	02002bf4 	movhi	r8,175
 2002a84:	02002ddc 	xori	r8,zero,183
 2002a88:	02002e78 	rdprs	r8,zero,185
 2002a8c:	02002bf4 	movhi	r8,175
 2002a90:	02002bf4 	movhi	r8,175
 2002a94:	02002e94 	movui	r8,186
 2002a98:	02002bf4 	movhi	r8,175
 2002a9c:	02002bf4 	movhi	r8,175
 2002aa0:	02002bf4 	movhi	r8,175
 2002aa4:	02002bf4 	movhi	r8,175
 2002aa8:	02002ec0 	call	2002ec <__reset-0x1dffd14>
 2002aac:	02002bf4 	movhi	r8,175
 2002ab0:	02002bf4 	movhi	r8,175
 2002ab4:	02002bf4 	movhi	r8,175
 2002ab8:	02002bf4 	movhi	r8,175
 2002abc:	02002bf4 	movhi	r8,175
 2002ac0:	02002f14 	movui	r8,188
 2002ac4:	02002bf4 	movhi	r8,175
 2002ac8:	02002bf4 	movhi	r8,175
 2002acc:	02002bf4 	movhi	r8,175
 2002ad0:	02002bf4 	movhi	r8,175
 2002ad4:	02003024 	muli	r8,zero,192
 2002ad8:	02002bf4 	movhi	r8,175
 2002adc:	02002bf4 	movhi	r8,175
 2002ae0:	02002bf4 	movhi	r8,175
 2002ae4:	02002bf4 	movhi	r8,175
 2002ae8:	02002bf4 	movhi	r8,175
 2002aec:	02002bf4 	movhi	r8,175
 2002af0:	02002bf4 	movhi	r8,175
 2002af4:	02002dcc 	andi	r8,zero,183
 2002af8:	02002bf4 	movhi	r8,175
 2002afc:	02002bf4 	movhi	r8,175
 2002b00:	02002bf4 	movhi	r8,175
 2002b04:	02002ddc 	xori	r8,zero,183
 2002b08:	02002e78 	rdprs	r8,zero,185
 2002b0c:	02002bf4 	movhi	r8,175
 2002b10:	02002bf4 	movhi	r8,175
 2002b14:	02002e94 	movui	r8,186
 2002b18:	02002bf4 	movhi	r8,175
 2002b1c:	02002bf4 	movhi	r8,175
 2002b20:	02002bf4 	movhi	r8,175
 2002b24:	02002bf4 	movhi	r8,175
 2002b28:	02002ec0 	call	2002ec <__reset-0x1dffd14>
 2002b2c:	02002bf4 	movhi	r8,175
 2002b30:	02002bf4 	movhi	r8,175
 2002b34:	02002bf4 	movhi	r8,175
 2002b38:	02002bf4 	movhi	r8,175
 2002b3c:	02002bf4 	movhi	r8,175
 2002b40:	02002f14 	movui	r8,188
 2002b44:	02002bf4 	movhi	r8,175
 2002b48:	02002bf4 	movhi	r8,175
 2002b4c:	02002bf4 	movhi	r8,175
 2002b50:	02002bf4 	movhi	r8,175
 2002b54:	02003024 	muli	r8,zero,192
 2002b58:	d900a317 	ldw	r4,652(sp)
 2002b5c:	00805704 	movi	r2,348
 2002b60:	20ffffc4 	addi	r3,r4,-1
 2002b64:	10c18c2e 	bgeu	r2,r3,2003198 <__svfscanf_r+0xf04>
 2002b68:	00805744 	movi	r2,349
 2002b6c:	257fa8c4 	addi	r21,r4,-349
 2002b70:	9c836014 	ori	r18,r19,3456
 2002b74:	d880a315 	stw	r2,652(sp)
 2002b78:	0001a106 	br	2003200 <__svfscanf_r+0xf6c>
 2002b7c:	b009883a 	mov	r4,r22
 2002b80:	800b883a 	mov	r5,r16
 2002b84:	200884c0 	call	200884c <__srefill_r>
 2002b88:	103eb226 	beq	r2,zero,2002654 <__svfscanf_r+0x3c0>
 2002b8c:	003e1606 	br	20023e8 <__svfscanf_r+0x154>
 2002b90:	01000284 	movi	r4,10
 2002b94:	00808074 	movhi	r2,513
 2002b98:	10aac404 	addi	r2,r2,-21744
 2002b9c:	054000c4 	movi	r21,3
 2002ba0:	d900a115 	stw	r4,644(sp)
 2002ba4:	d880a015 	stw	r2,640(sp)
 2002ba8:	003ea806 	br	200264c <__svfscanf_r+0x3b8>
 2002bac:	a880200c 	andi	r2,r21,128
 2002bb0:	10001026 	beq	r2,zero,2002bf4 <__svfscanf_r+0x960>
 2002bb4:	00bfdfc4 	movi	r2,-129
 2002bb8:	a8aa703a 	and	r21,r21,r2
 2002bbc:	b9400005 	stb	r5,0(r23)
 2002bc0:	bdc00044 	addi	r23,r23,1
 2002bc4:	80c00117 	ldw	r3,4(r16)
 2002bc8:	8c400044 	addi	r17,r17,1
 2002bcc:	18bfffc4 	addi	r2,r3,-1
 2002bd0:	80800115 	stw	r2,4(r16)
 2002bd4:	0080610e 	bge	zero,r2,2002d5c <__svfscanf_r+0xac8>
 2002bd8:	80800017 	ldw	r2,0(r16)
 2002bdc:	10800044 	addi	r2,r2,1
 2002be0:	80800015 	stw	r2,0(r16)
 2002be4:	d880a317 	ldw	r2,652(sp)
 2002be8:	10bfffc4 	addi	r2,r2,-1
 2002bec:	d880a315 	stw	r2,652(sp)
 2002bf0:	103f7d1e 	bne	r2,zero,20029e8 <__svfscanf_r+0x754>
 2002bf4:	d8c09e17 	ldw	r3,632(sp)
 2002bf8:	18000226 	beq	r3,zero,2002c04 <__svfscanf_r+0x970>
 2002bfc:	00bfbfc4 	movi	r2,-257
 2002c00:	a8aa703a 	and	r21,r21,r2
 2002c04:	90ffffc4 	addi	r3,r18,-1
 2002c08:	00800044 	movi	r2,1
 2002c0c:	10c0cd2e 	bgeu	r2,r3,2002f44 <__svfscanf_r+0xcb0>
 2002c10:	e1003fcc 	andi	r4,fp,255
 2002c14:	2100201c 	xori	r4,r4,128
 2002c18:	213fe004 	addi	r4,r4,-128
 2002c1c:	20ffffc4 	addi	r3,r4,-1
 2002c20:	00800184 	movi	r2,6
 2002c24:	10c01736 	bltu	r2,r3,2002c84 <__svfscanf_r+0x9f0>
 2002c28:	00c00084 	movi	r3,2
 2002c2c:	1900880e 	bge	r3,r4,2002e50 <__svfscanf_r+0xbbc>
 2002c30:	008000c4 	movi	r2,3
 2002c34:	1100130e 	bge	r2,r4,2002c84 <__svfscanf_r+0x9f0>
 2002c38:	e4ffffc4 	addi	r19,fp,-1
 2002c3c:	b825883a 	mov	r18,r23
 2002c40:	94bfffc4 	addi	r18,r18,-1
 2002c44:	91400007 	ldb	r5,0(r18)
 2002c48:	b009883a 	mov	r4,r22
 2002c4c:	800d883a 	mov	r6,r16
 2002c50:	200b1300 	call	200b130 <_ungetc_r>
 2002c54:	9cffffc4 	addi	r19,r19,-1
 2002c58:	98c03fcc 	andi	r3,r19,255
 2002c5c:	18c0201c 	xori	r3,r3,128
 2002c60:	18ffe004 	addi	r3,r3,-128
 2002c64:	00800084 	movi	r2,2
 2002c68:	18bff51e 	bne	r3,r2,2002c40 <__svfscanf_r+0x9ac>
 2002c6c:	e0bfff04 	addi	r2,fp,-4
 2002c70:	10803fcc 	andi	r2,r2,255
 2002c74:	b887c83a 	sub	r3,r23,r2
 2002c78:	8885c83a 	sub	r2,r17,r2
 2002c7c:	147fffc4 	addi	r17,r2,-1
 2002c80:	1dffffc4 	addi	r23,r3,-1
 2002c84:	a880400c 	andi	r2,r21,256
 2002c88:	10001226 	beq	r2,zero,2002cd4 <__svfscanf_r+0xa40>
 2002c8c:	a881000c 	andi	r2,r21,1024
 2002c90:	1000651e 	bne	r2,zero,2002e28 <__svfscanf_r+0xb94>
 2002c94:	bdffffc4 	addi	r23,r23,-1
 2002c98:	b9400007 	ldb	r5,0(r23)
 2002c9c:	00801944 	movi	r2,101
 2002ca0:	8c7fffc4 	addi	r17,r17,-1
 2002ca4:	28800826 	beq	r5,r2,2002cc8 <__svfscanf_r+0xa34>
 2002ca8:	00801144 	movi	r2,69
 2002cac:	28800626 	beq	r5,r2,2002cc8 <__svfscanf_r+0xa34>
 2002cb0:	bdffffc4 	addi	r23,r23,-1
 2002cb4:	b009883a 	mov	r4,r22
 2002cb8:	800d883a 	mov	r6,r16
 2002cbc:	200b1300 	call	200b130 <_ungetc_r>
 2002cc0:	b9400007 	ldb	r5,0(r23)
 2002cc4:	8c7fffc4 	addi	r17,r17,-1
 2002cc8:	b009883a 	mov	r4,r22
 2002ccc:	800d883a 	mov	r6,r16
 2002cd0:	200b1300 	call	200b130 <_ungetc_r>
 2002cd4:	a880040c 	andi	r2,r21,16
 2002cd8:	103d811e 	bne	r2,zero,20022e0 <__svfscanf_r+0x4c>
 2002cdc:	a8c1800c 	andi	r3,r21,1536
 2002ce0:	00810004 	movi	r2,1024
 2002ce4:	b8000005 	stb	zero,0(r23)
 2002ce8:	1880bb26 	beq	r3,r2,2002fd8 <__svfscanf_r+0xd44>
 2002cec:	d8809d17 	ldw	r2,628(sp)
 2002cf0:	1000a61e 	bne	r2,zero,2002f8c <__svfscanf_r+0xcf8>
 2002cf4:	d940a617 	ldw	r5,664(sp)
 2002cf8:	b009883a 	mov	r4,r22
 2002cfc:	000d883a 	mov	r6,zero
 2002d00:	2008f6c0 	call	2008f6c <_strtod_r>
 2002d04:	a900004c 	andi	r4,r21,1
 2002d08:	2009003a 	cmpeq	r4,r4,zero
 2002d0c:	1025883a 	mov	r18,r2
 2002d10:	1827883a 	mov	r19,r3
 2002d14:	2000951e 	bne	r4,zero,2002f6c <__svfscanf_r+0xcd8>
 2002d18:	d8c0a417 	ldw	r3,656(sp)
 2002d1c:	18800017 	ldw	r2,0(r3)
 2002d20:	1d400104 	addi	r21,r3,4
 2002d24:	14c00115 	stw	r19,4(r2)
 2002d28:	14800015 	stw	r18,0(r2)
 2002d2c:	d8c0a217 	ldw	r3,648(sp)
 2002d30:	dd40a415 	stw	r21,656(sp)
 2002d34:	18c00044 	addi	r3,r3,1
 2002d38:	d8c0a215 	stw	r3,648(sp)
 2002d3c:	003d6806 	br	20022e0 <__svfscanf_r+0x4c>
 2002d40:	a880800c 	andi	r2,r21,512
 2002d44:	103fab26 	beq	r2,zero,2002bf4 <__svfscanf_r+0x960>
 2002d48:	d9009e17 	ldw	r4,632(sp)
 2002d4c:	00bf5fc4 	movi	r2,-641
 2002d50:	a8aa703a 	and	r21,r21,r2
 2002d54:	d9009f15 	stw	r4,636(sp)
 2002d58:	003f9806 	br	2002bbc <__svfscanf_r+0x928>
 2002d5c:	b009883a 	mov	r4,r22
 2002d60:	800b883a 	mov	r5,r16
 2002d64:	d980a715 	stw	r6,668(sp)
 2002d68:	200884c0 	call	200884c <__srefill_r>
 2002d6c:	d980a717 	ldw	r6,668(sp)
 2002d70:	103f9c26 	beq	r2,zero,2002be4 <__svfscanf_r+0x950>
 2002d74:	003f9f06 	br	2002bf4 <__svfscanf_r+0x960>
 2002d78:	a880400c 	andi	r2,r21,256
 2002d7c:	10000b26 	beq	r2,zero,2002dac <__svfscanf_r+0xb18>
 2002d80:	00bfdfc4 	movi	r2,-129
 2002d84:	a8aa703a 	and	r21,r21,r2
 2002d88:	d8809e17 	ldw	r2,632(sp)
 2002d8c:	10800044 	addi	r2,r2,1
 2002d90:	d8809e15 	stw	r2,632(sp)
 2002d94:	303f8b26 	beq	r6,zero,2002bc4 <__svfscanf_r+0x930>
 2002d98:	d8c0a317 	ldw	r3,652(sp)
 2002d9c:	31bfffc4 	addi	r6,r6,-1
 2002da0:	18c00044 	addi	r3,r3,1
 2002da4:	d8c0a315 	stw	r3,652(sp)
 2002da8:	003f8606 	br	2002bc4 <__svfscanf_r+0x930>
 2002dac:	e0803fcc 	andi	r2,fp,255
 2002db0:	1080201c 	xori	r2,r2,128
 2002db4:	10bfe004 	addi	r2,r2,-128
 2002db8:	9085883a 	add	r2,r18,r2
 2002dbc:	103f8d1e 	bne	r2,zero,2002bf4 <__svfscanf_r+0x960>
 2002dc0:	00bf9fc4 	movi	r2,-385
 2002dc4:	a8aa703a 	and	r21,r21,r2
 2002dc8:	003f7c06 	br	2002bbc <__svfscanf_r+0x928>
 2002dcc:	00800044 	movi	r2,1
 2002dd0:	90bf881e 	bne	r18,r2,2002bf4 <__svfscanf_r+0x960>
 2002dd4:	04800084 	movi	r18,2
 2002dd8:	003f7806 	br	2002bbc <__svfscanf_r+0x928>
 2002ddc:	a8c1400c 	andi	r3,r21,1280
 2002de0:	00810004 	movi	r2,1024
 2002de4:	18800426 	beq	r3,r2,2002df8 <__svfscanf_r+0xb64>
 2002de8:	a884703a 	and	r2,r21,r2
 2002dec:	103f8126 	beq	r2,zero,2002bf4 <__svfscanf_r+0x960>
 2002df0:	d8809e17 	ldw	r2,632(sp)
 2002df4:	103f8326 	beq	r2,zero,2002c04 <__svfscanf_r+0x970>
 2002df8:	a880800c 	andi	r2,r21,512
 2002dfc:	1000051e 	bne	r2,zero,2002e14 <__svfscanf_r+0xb80>
 2002e00:	d8c09e17 	ldw	r3,632(sp)
 2002e04:	d9009f17 	ldw	r4,636(sp)
 2002e08:	ddc09c15 	stw	r23,624(sp)
 2002e0c:	1907c83a 	sub	r3,r3,r4
 2002e10:	d8c09d15 	stw	r3,628(sp)
 2002e14:	00be7fc4 	movi	r2,-1537
 2002e18:	a884703a 	and	r2,r21,r2
 2002e1c:	15406014 	ori	r21,r2,384
 2002e20:	d8009e15 	stw	zero,632(sp)
 2002e24:	003f6506 	br	2002bbc <__svfscanf_r+0x928>
 2002e28:	d900a617 	ldw	r4,664(sp)
 2002e2c:	25fd4e2e 	bgeu	r4,r23,2002368 <__svfscanf_r+0xd4>
 2002e30:	bdffffc4 	addi	r23,r23,-1
 2002e34:	b9400007 	ldb	r5,0(r23)
 2002e38:	b009883a 	mov	r4,r22
 2002e3c:	800d883a 	mov	r6,r16
 2002e40:	200b1300 	call	200b130 <_ungetc_r>
 2002e44:	d880a617 	ldw	r2,664(sp)
 2002e48:	15fff936 	bltu	r2,r23,2002e30 <__svfscanf_r+0xb9c>
 2002e4c:	003d4606 	br	2002368 <__svfscanf_r+0xd4>
 2002e50:	d900a617 	ldw	r4,664(sp)
 2002e54:	25fd442e 	bgeu	r4,r23,2002368 <__svfscanf_r+0xd4>
 2002e58:	bdffffc4 	addi	r23,r23,-1
 2002e5c:	b9400007 	ldb	r5,0(r23)
 2002e60:	b009883a 	mov	r4,r22
 2002e64:	800d883a 	mov	r6,r16
 2002e68:	200b1300 	call	200b130 <_ungetc_r>
 2002e6c:	d8c0a617 	ldw	r3,664(sp)
 2002e70:	1dfff936 	bltu	r3,r23,2002e58 <__svfscanf_r+0xbc4>
 2002e74:	003d3c06 	br	2002368 <__svfscanf_r+0xd4>
 2002e78:	e0c03fcc 	andi	r3,fp,255
 2002e7c:	18c0201c 	xori	r3,r3,128
 2002e80:	18ffe004 	addi	r3,r3,-128
 2002e84:	00800084 	movi	r2,2
 2002e88:	18bf5a1e 	bne	r3,r2,2002bf4 <__svfscanf_r+0x960>
 2002e8c:	070000c4 	movi	fp,3
 2002e90:	003f4a06 	br	2002bbc <__svfscanf_r+0x928>
 2002e94:	e0c03fcc 	andi	r3,fp,255
 2002e98:	18c0201c 	xori	r3,r3,128
 2002e9c:	18ffe004 	addi	r3,r3,-128
 2002ea0:	1800231e 	bne	r3,zero,2002f30 <__svfscanf_r+0xc9c>
 2002ea4:	a8c1c00c 	andi	r3,r21,1792
 2002ea8:	0081c004 	movi	r2,1792
 2002eac:	18bf511e 	bne	r3,r2,2002bf4 <__svfscanf_r+0x960>
 2002eb0:	00be1fc4 	movi	r2,-1921
 2002eb4:	a8aa703a 	and	r21,r21,r2
 2002eb8:	07000044 	movi	fp,1
 2002ebc:	003f3f06 	br	2002bbc <__svfscanf_r+0x928>
 2002ec0:	9000101e 	bne	r18,zero,2002f04 <__svfscanf_r+0xc70>
 2002ec4:	a8c1c00c 	andi	r3,r21,1792
 2002ec8:	0081c004 	movi	r2,1792
 2002ecc:	18800926 	beq	r3,r2,2002ef4 <__svfscanf_r+0xc60>
 2002ed0:	e0c03fcc 	andi	r3,fp,255
 2002ed4:	18c0201c 	xori	r3,r3,128
 2002ed8:	18ffe004 	addi	r3,r3,-128
 2002edc:	00800044 	movi	r2,1
 2002ee0:	18800226 	beq	r3,r2,2002eec <__svfscanf_r+0xc58>
 2002ee4:	00800104 	movi	r2,4
 2002ee8:	18bf421e 	bne	r3,r2,2002bf4 <__svfscanf_r+0x960>
 2002eec:	e7000044 	addi	fp,fp,1
 2002ef0:	003f3206 	br	2002bbc <__svfscanf_r+0x928>
 2002ef4:	00be1fc4 	movi	r2,-1921
 2002ef8:	a8aa703a 	and	r21,r21,r2
 2002efc:	04800044 	movi	r18,1
 2002f00:	003f2e06 	br	2002bbc <__svfscanf_r+0x928>
 2002f04:	00800084 	movi	r2,2
 2002f08:	90bff11e 	bne	r18,r2,2002ed0 <__svfscanf_r+0xc3c>
 2002f0c:	048000c4 	movi	r18,3
 2002f10:	003f2a06 	br	2002bbc <__svfscanf_r+0x928>
 2002f14:	e0c03fcc 	andi	r3,fp,255
 2002f18:	18c0201c 	xori	r3,r3,128
 2002f1c:	18ffe004 	addi	r3,r3,-128
 2002f20:	00800184 	movi	r2,6
 2002f24:	18bf331e 	bne	r3,r2,2002bf4 <__svfscanf_r+0x960>
 2002f28:	070001c4 	movi	fp,7
 2002f2c:	003f2306 	br	2002bbc <__svfscanf_r+0x928>
 2002f30:	008000c4 	movi	r2,3
 2002f34:	18bfed26 	beq	r3,r2,2002eec <__svfscanf_r+0xc58>
 2002f38:	00800144 	movi	r2,5
 2002f3c:	18bfeb26 	beq	r3,r2,2002eec <__svfscanf_r+0xc58>
 2002f40:	003f2c06 	br	2002bf4 <__svfscanf_r+0x960>
 2002f44:	d900a617 	ldw	r4,664(sp)
 2002f48:	25fd072e 	bgeu	r4,r23,2002368 <__svfscanf_r+0xd4>
 2002f4c:	bdffffc4 	addi	r23,r23,-1
 2002f50:	b9400007 	ldb	r5,0(r23)
 2002f54:	b009883a 	mov	r4,r22
 2002f58:	800d883a 	mov	r6,r16
 2002f5c:	200b1300 	call	200b130 <_ungetc_r>
 2002f60:	d880a617 	ldw	r2,664(sp)
 2002f64:	15fff936 	bltu	r2,r23,2002f4c <__svfscanf_r+0xcb8>
 2002f68:	003cff06 	br	2002368 <__svfscanf_r+0xd4>
 2002f6c:	a880008c 	andi	r2,r21,2
 2002f70:	10002026 	beq	r2,zero,2002ff4 <__svfscanf_r+0xd60>
 2002f74:	d900a417 	ldw	r4,656(sp)
 2002f78:	20800017 	ldw	r2,0(r4)
 2002f7c:	25400104 	addi	r21,r4,4
 2002f80:	10c00115 	stw	r3,4(r2)
 2002f84:	14800015 	stw	r18,0(r2)
 2002f88:	003f6806 	br	2002d2c <__svfscanf_r+0xa98>
 2002f8c:	d8c09c17 	ldw	r3,624(sp)
 2002f90:	b009883a 	mov	r4,r22
 2002f94:	000d883a 	mov	r6,zero
 2002f98:	19400044 	addi	r5,r3,1
 2002f9c:	01c00284 	movi	r7,10
 2002fa0:	200a5900 	call	200a590 <_strtol_r>
 2002fa4:	d9009d17 	ldw	r4,628(sp)
 2002fa8:	110dc83a 	sub	r6,r2,r4
 2002fac:	d8c0a617 	ldw	r3,664(sp)
 2002fb0:	d9009c17 	ldw	r4,624(sp)
 2002fb4:	188054c4 	addi	r2,r3,339
 2002fb8:	20800236 	bltu	r4,r2,2002fc4 <__svfscanf_r+0xd30>
 2002fbc:	18805484 	addi	r2,r3,338
 2002fc0:	d8809c15 	stw	r2,624(sp)
 2002fc4:	d9009c17 	ldw	r4,624(sp)
 2002fc8:	01408074 	movhi	r5,513
 2002fcc:	29457f04 	addi	r5,r5,5628
 2002fd0:	2008bd40 	call	2008bd4 <sprintf>
 2002fd4:	003f4706 	br	2002cf4 <__svfscanf_r+0xa60>
 2002fd8:	d8c09e17 	ldw	r3,632(sp)
 2002fdc:	d9009f17 	ldw	r4,636(sp)
 2002fe0:	1905c83a 	sub	r2,r3,r4
 2002fe4:	103f4326 	beq	r2,zero,2002cf4 <__svfscanf_r+0xa60>
 2002fe8:	008dc83a 	sub	r6,zero,r2
 2002fec:	ddc09c15 	stw	r23,624(sp)
 2002ff0:	003fee06 	br	2002fac <__svfscanf_r+0xd18>
 2002ff4:	d880a417 	ldw	r2,656(sp)
 2002ff8:	9009883a 	mov	r4,r18
 2002ffc:	180b883a 	mov	r5,r3
 2003000:	15c00017 	ldw	r23,0(r2)
 2003004:	15400104 	addi	r21,r2,4
 2003008:	2008a6c0 	call	2008a6c <__isnand>
 200300c:	10021c1e 	bne	r2,zero,2003880 <__svfscanf_r+0x15ec>
 2003010:	980b883a 	mov	r5,r19
 2003014:	9009883a 	mov	r4,r18
 2003018:	200e1540 	call	200e154 <__truncdfsf2>
 200301c:	b8800015 	stw	r2,0(r23)
 2003020:	003f4206 	br	2002d2c <__svfscanf_r+0xa98>
 2003024:	e0c03fcc 	andi	r3,fp,255
 2003028:	18c0201c 	xori	r3,r3,128
 200302c:	18ffe004 	addi	r3,r3,-128
 2003030:	008001c4 	movi	r2,7
 2003034:	18beef1e 	bne	r3,r2,2002bf4 <__svfscanf_r+0x960>
 2003038:	07000204 	movi	fp,8
 200303c:	003edf06 	br	2002bbc <__svfscanf_r+0x928>
 2003040:	d900a317 	ldw	r4,652(sp)
 2003044:	208002a4 	muli	r2,r4,10
 2003048:	1145883a 	add	r2,r2,r5
 200304c:	10bff404 	addi	r2,r2,-48
 2003050:	d880a315 	stw	r2,652(sp)
 2003054:	003ceb06 	br	2002404 <__svfscanf_r+0x170>
 2003058:	9880040c 	andi	r2,r19,16
 200305c:	10001426 	beq	r2,zero,20030b0 <__svfscanf_r+0xe1c>
 2003060:	0027883a 	mov	r19,zero
 2003064:	00000906 	br	200308c <__svfscanf_r+0xdf8>
 2003068:	80c00117 	ldw	r3,4(r16)
 200306c:	d880a317 	ldw	r2,652(sp)
 2003070:	29800044 	addi	r6,r5,1
 2003074:	18ffffc4 	addi	r3,r3,-1
 2003078:	9cc00044 	addi	r19,r19,1
 200307c:	81800015 	stw	r6,0(r16)
 2003080:	80c00115 	stw	r3,4(r16)
 2003084:	14fdf726 	beq	r2,r19,2002864 <__svfscanf_r+0x5d0>
 2003088:	00c02c0e 	bge	zero,r3,200313c <__svfscanf_r+0xea8>
 200308c:	81400017 	ldw	r5,0(r16)
 2003090:	90800017 	ldw	r2,0(r18)
 2003094:	28c00003 	ldbu	r3,0(r5)
 2003098:	1887883a 	add	r3,r3,r2
 200309c:	19000003 	ldbu	r4,0(r3)
 20030a0:	2100020c 	andi	r4,r4,8
 20030a4:	203ff026 	beq	r4,zero,2003068 <__svfscanf_r+0xdd4>
 20030a8:	8ce3883a 	add	r17,r17,r19
 20030ac:	003c8c06 	br	20022e0 <__svfscanf_r+0x4c>
 20030b0:	d8c0a417 	ldw	r3,656(sp)
 20030b4:	1d400017 	ldw	r21,0(r3)
 20030b8:	a827883a 	mov	r19,r21
 20030bc:	00000e06 	br	20030f8 <__svfscanf_r+0xe64>
 20030c0:	80800117 	ldw	r2,4(r16)
 20030c4:	d900a317 	ldw	r4,652(sp)
 20030c8:	29800044 	addi	r6,r5,1
 20030cc:	10ffffc4 	addi	r3,r2,-1
 20030d0:	213fffc4 	addi	r4,r4,-1
 20030d4:	d900a315 	stw	r4,652(sp)
 20030d8:	80c00115 	stw	r3,4(r16)
 20030dc:	28800003 	ldbu	r2,0(r5)
 20030e0:	98800005 	stb	r2,0(r19)
 20030e4:	81800015 	stw	r6,0(r16)
 20030e8:	9cc00044 	addi	r19,r19,1
 20030ec:	20000926 	beq	r4,zero,2003114 <__svfscanf_r+0xe80>
 20030f0:	80800117 	ldw	r2,4(r16)
 20030f4:	0080170e 	bge	zero,r2,2003154 <__svfscanf_r+0xec0>
 20030f8:	81400017 	ldw	r5,0(r16)
 20030fc:	90800017 	ldw	r2,0(r18)
 2003100:	28c00003 	ldbu	r3,0(r5)
 2003104:	1887883a 	add	r3,r3,r2
 2003108:	19000003 	ldbu	r4,0(r3)
 200310c:	2100020c 	andi	r4,r4,8
 2003110:	203feb26 	beq	r4,zero,20030c0 <__svfscanf_r+0xe2c>
 2003114:	9d45c83a 	sub	r2,r19,r21
 2003118:	d8c0a217 	ldw	r3,648(sp)
 200311c:	88a3883a 	add	r17,r17,r2
 2003120:	d880a417 	ldw	r2,656(sp)
 2003124:	18c00044 	addi	r3,r3,1
 2003128:	d8c0a215 	stw	r3,648(sp)
 200312c:	10800104 	addi	r2,r2,4
 2003130:	d880a415 	stw	r2,656(sp)
 2003134:	98000005 	stb	zero,0(r19)
 2003138:	003c6906 	br	20022e0 <__svfscanf_r+0x4c>
 200313c:	b009883a 	mov	r4,r22
 2003140:	800b883a 	mov	r5,r16
 2003144:	200884c0 	call	200884c <__srefill_r>
 2003148:	103fd026 	beq	r2,zero,200308c <__svfscanf_r+0xdf8>
 200314c:	8ce3883a 	add	r17,r17,r19
 2003150:	003c6306 	br	20022e0 <__svfscanf_r+0x4c>
 2003154:	b009883a 	mov	r4,r22
 2003158:	800b883a 	mov	r5,r16
 200315c:	200884c0 	call	200884c <__srefill_r>
 2003160:	103fe526 	beq	r2,zero,20030f8 <__svfscanf_r+0xe64>
 2003164:	003feb06 	br	2003114 <__svfscanf_r+0xe80>
 2003168:	d900a317 	ldw	r4,652(sp)
 200316c:	9d41e014 	ori	r21,r19,1920
 2003170:	2000821e 	bne	r4,zero,200337c <__svfscanf_r+0x10e8>
 2003174:	d8c04404 	addi	r3,sp,272
 2003178:	182f883a 	mov	r23,r3
 200317c:	0039883a 	mov	fp,zero
 2003180:	d8c0a615 	stw	r3,664(sp)
 2003184:	d8009c15 	stw	zero,624(sp)
 2003188:	d8009d15 	stw	zero,628(sp)
 200318c:	d8009f15 	stw	zero,636(sp)
 2003190:	d8009e15 	stw	zero,632(sp)
 2003194:	003e9e06 	br	2002c10 <__svfscanf_r+0x97c>
 2003198:	d900a317 	ldw	r4,652(sp)
 200319c:	9c836014 	ori	r18,r19,3456
 20031a0:	2000161e 	bne	r4,zero,20031fc <__svfscanf_r+0xf68>
 20031a4:	d8804404 	addi	r2,sp,272
 20031a8:	d880a615 	stw	r2,664(sp)
 20031ac:	002f883a 	mov	r23,zero
 20031b0:	1027883a 	mov	r19,r2
 20031b4:	9080400c 	andi	r2,r18,256
 20031b8:	10000926 	beq	r2,zero,20031e0 <__svfscanf_r+0xf4c>
 20031bc:	d8c0a617 	ldw	r3,664(sp)
 20031c0:	1cc0052e 	bgeu	r3,r19,20031d8 <__svfscanf_r+0xf44>
 20031c4:	9cffffc4 	addi	r19,r19,-1
 20031c8:	99400007 	ldb	r5,0(r19)
 20031cc:	b009883a 	mov	r4,r22
 20031d0:	800d883a 	mov	r6,r16
 20031d4:	200b1300 	call	200b130 <_ungetc_r>
 20031d8:	d900a617 	ldw	r4,664(sp)
 20031dc:	24fc6226 	beq	r4,r19,2002368 <__svfscanf_r+0xd4>
 20031e0:	9080040c 	andi	r2,r18,16
 20031e4:	10006726 	beq	r2,zero,2003384 <__svfscanf_r+0x10f0>
 20031e8:	d8c0a617 	ldw	r3,664(sp)
 20031ec:	98c5c83a 	sub	r2,r19,r3
 20031f0:	b885883a 	add	r2,r23,r2
 20031f4:	88a3883a 	add	r17,r17,r2
 20031f8:	003c3906 	br	20022e0 <__svfscanf_r+0x4c>
 20031fc:	002b883a 	mov	r21,zero
 2003200:	d8c04404 	addi	r3,sp,272
 2003204:	d8c0a615 	stw	r3,664(sp)
 2003208:	002f883a 	mov	r23,zero
 200320c:	1827883a 	mov	r19,r3
 2003210:	81800017 	ldw	r6,0(r16)
 2003214:	00c01344 	movi	r3,77
 2003218:	31400003 	ldbu	r5,0(r6)
 200321c:	28bff544 	addi	r2,r5,-43
 2003220:	10803fcc 	andi	r2,r2,255
 2003224:	18bfe336 	bltu	r3,r2,20031b4 <__svfscanf_r+0xf20>
 2003228:	1085883a 	add	r2,r2,r2
 200322c:	1085883a 	add	r2,r2,r2
 2003230:	00c08034 	movhi	r3,512
 2003234:	18cc9104 	addi	r3,r3,12868
 2003238:	10c5883a 	add	r2,r2,r3
 200323c:	11000017 	ldw	r4,0(r2)
 2003240:	2000683a 	jmp	r4
 2003244:	020033d8 	cmpnei	r8,zero,207
 2003248:	020031b4 	movhi	r8,198
 200324c:	020033d8 	cmpnei	r8,zero,207
 2003250:	020031b4 	movhi	r8,198
 2003254:	020031b4 	movhi	r8,198
 2003258:	0200341c 	xori	r8,zero,208
 200325c:	02003518 	cmpnei	r8,zero,212
 2003260:	02003518 	cmpnei	r8,zero,212
 2003264:	02003518 	cmpnei	r8,zero,212
 2003268:	02003518 	cmpnei	r8,zero,212
 200326c:	02003518 	cmpnei	r8,zero,212
 2003270:	02003518 	cmpnei	r8,zero,212
 2003274:	02003518 	cmpnei	r8,zero,212
 2003278:	02003540 	call	200354 <__reset-0x1dffcac>
 200327c:	02003540 	call	200354 <__reset-0x1dffcac>
 2003280:	020031b4 	movhi	r8,198
 2003284:	020031b4 	movhi	r8,198
 2003288:	020031b4 	movhi	r8,198
 200328c:	020031b4 	movhi	r8,198
 2003290:	020031b4 	movhi	r8,198
 2003294:	020031b4 	movhi	r8,198
 2003298:	020031b4 	movhi	r8,198
 200329c:	02003570 	cmpltui	r8,zero,213
 20032a0:	02003570 	cmpltui	r8,zero,213
 20032a4:	02003570 	cmpltui	r8,zero,213
 20032a8:	02003570 	cmpltui	r8,zero,213
 20032ac:	02003570 	cmpltui	r8,zero,213
 20032b0:	02003570 	cmpltui	r8,zero,213
 20032b4:	020031b4 	movhi	r8,198
 20032b8:	020031b4 	movhi	r8,198
 20032bc:	020031b4 	movhi	r8,198
 20032c0:	020031b4 	movhi	r8,198
 20032c4:	020031b4 	movhi	r8,198
 20032c8:	020031b4 	movhi	r8,198
 20032cc:	020031b4 	movhi	r8,198
 20032d0:	020031b4 	movhi	r8,198
 20032d4:	020031b4 	movhi	r8,198
 20032d8:	020031b4 	movhi	r8,198
 20032dc:	020031b4 	movhi	r8,198
 20032e0:	020031b4 	movhi	r8,198
 20032e4:	020031b4 	movhi	r8,198
 20032e8:	020031b4 	movhi	r8,198
 20032ec:	020031b4 	movhi	r8,198
 20032f0:	020031b4 	movhi	r8,198
 20032f4:	020031b4 	movhi	r8,198
 20032f8:	02003580 	call	200358 <__reset-0x1dffca8>
 20032fc:	020031b4 	movhi	r8,198
 2003300:	020031b4 	movhi	r8,198
 2003304:	020031b4 	movhi	r8,198
 2003308:	020031b4 	movhi	r8,198
 200330c:	020031b4 	movhi	r8,198
 2003310:	020031b4 	movhi	r8,198
 2003314:	020031b4 	movhi	r8,198
 2003318:	020031b4 	movhi	r8,198
 200331c:	02003570 	cmpltui	r8,zero,213
 2003320:	02003570 	cmpltui	r8,zero,213
 2003324:	02003570 	cmpltui	r8,zero,213
 2003328:	02003570 	cmpltui	r8,zero,213
 200332c:	02003570 	cmpltui	r8,zero,213
 2003330:	02003570 	cmpltui	r8,zero,213
 2003334:	020031b4 	movhi	r8,198
 2003338:	020031b4 	movhi	r8,198
 200333c:	020031b4 	movhi	r8,198
 2003340:	020031b4 	movhi	r8,198
 2003344:	020031b4 	movhi	r8,198
 2003348:	020031b4 	movhi	r8,198
 200334c:	020031b4 	movhi	r8,198
 2003350:	020031b4 	movhi	r8,198
 2003354:	020031b4 	movhi	r8,198
 2003358:	020031b4 	movhi	r8,198
 200335c:	020031b4 	movhi	r8,198
 2003360:	020031b4 	movhi	r8,198
 2003364:	020031b4 	movhi	r8,198
 2003368:	020031b4 	movhi	r8,198
 200336c:	020031b4 	movhi	r8,198
 2003370:	020031b4 	movhi	r8,198
 2003374:	020031b4 	movhi	r8,198
 2003378:	02003580 	call	200358 <__reset-0x1dffca8>
 200337c:	000d883a 	mov	r6,zero
 2003380:	003d9006 	br	20029c4 <__svfscanf_r+0x730>
 2003384:	98000005 	stb	zero,0(r19)
 2003388:	d8c0a017 	ldw	r3,640(sp)
 200338c:	d940a617 	ldw	r5,664(sp)
 2003390:	d9c0a117 	ldw	r7,644(sp)
 2003394:	b009883a 	mov	r4,r22
 2003398:	000d883a 	mov	r6,zero
 200339c:	183ee83a 	callr	r3
 20033a0:	1007883a 	mov	r3,r2
 20033a4:	9080080c 	andi	r2,r18,32
 20033a8:	10004d1e 	bne	r2,zero,20034e0 <__svfscanf_r+0x124c>
 20033ac:	9080010c 	andi	r2,r18,4
 20033b0:	10003426 	beq	r2,zero,2003484 <__svfscanf_r+0x11f0>
 20033b4:	d900a417 	ldw	r4,656(sp)
 20033b8:	20800017 	ldw	r2,0(r4)
 20033bc:	21000104 	addi	r4,r4,4
 20033c0:	d900a415 	stw	r4,656(sp)
 20033c4:	10c0000d 	sth	r3,0(r2)
 20033c8:	d880a217 	ldw	r2,648(sp)
 20033cc:	10800044 	addi	r2,r2,1
 20033d0:	d880a215 	stw	r2,648(sp)
 20033d4:	003f8406 	br	20031e8 <__svfscanf_r+0xf54>
 20033d8:	9080200c 	andi	r2,r18,128
 20033dc:	103f7526 	beq	r2,zero,20031b4 <__svfscanf_r+0xf20>
 20033e0:	00bfdfc4 	movi	r2,-129
 20033e4:	90a4703a 	and	r18,r18,r2
 20033e8:	99400005 	stb	r5,0(r19)
 20033ec:	9cc00044 	addi	r19,r19,1
 20033f0:	80c00117 	ldw	r3,4(r16)
 20033f4:	18ffffc4 	addi	r3,r3,-1
 20033f8:	80c00115 	stw	r3,4(r16)
 20033fc:	00c0130e 	bge	zero,r3,200344c <__svfscanf_r+0x11b8>
 2003400:	31800044 	addi	r6,r6,1
 2003404:	81800015 	stw	r6,0(r16)
 2003408:	d880a317 	ldw	r2,652(sp)
 200340c:	10bfffc4 	addi	r2,r2,-1
 2003410:	d880a315 	stw	r2,652(sp)
 2003414:	103f7e1e 	bne	r2,zero,2003210 <__svfscanf_r+0xf7c>
 2003418:	003f6606 	br	20031b4 <__svfscanf_r+0xf20>
 200341c:	9082000c 	andi	r2,r18,2048
 2003420:	103ff126 	beq	r2,zero,20033e8 <__svfscanf_r+0x1154>
 2003424:	d8c0a117 	ldw	r3,644(sp)
 2003428:	1800031e 	bne	r3,zero,2003438 <__svfscanf_r+0x11a4>
 200342c:	01000204 	movi	r4,8
 2003430:	94808014 	ori	r18,r18,512
 2003434:	d900a115 	stw	r4,644(sp)
 2003438:	9081000c 	andi	r2,r18,1024
 200343c:	10000826 	beq	r2,zero,2003460 <__svfscanf_r+0x11cc>
 2003440:	00be9fc4 	movi	r2,-1409
 2003444:	90a4703a 	and	r18,r18,r2
 2003448:	003fe706 	br	20033e8 <__svfscanf_r+0x1154>
 200344c:	b009883a 	mov	r4,r22
 2003450:	800b883a 	mov	r5,r16
 2003454:	200884c0 	call	200884c <__srefill_r>
 2003458:	103feb26 	beq	r2,zero,2003408 <__svfscanf_r+0x1174>
 200345c:	003f5506 	br	20031b4 <__svfscanf_r+0xf20>
 2003460:	a8000426 	beq	r21,zero,2003474 <__svfscanf_r+0x11e0>
 2003464:	d880a317 	ldw	r2,652(sp)
 2003468:	ad7fffc4 	addi	r21,r21,-1
 200346c:	10800044 	addi	r2,r2,1
 2003470:	d880a315 	stw	r2,652(sp)
 2003474:	00bf1fc4 	movi	r2,-897
 2003478:	90a4703a 	and	r18,r18,r2
 200347c:	bdc00044 	addi	r23,r23,1
 2003480:	003fdb06 	br	20033f0 <__svfscanf_r+0x115c>
 2003484:	9080004c 	andi	r2,r18,1
 2003488:	1005003a 	cmpeq	r2,r2,zero
 200348c:	10001426 	beq	r2,zero,20034e0 <__svfscanf_r+0x124c>
 2003490:	9080008c 	andi	r2,r18,2
 2003494:	10001226 	beq	r2,zero,20034e0 <__svfscanf_r+0x124c>
 2003498:	d8c0a017 	ldw	r3,640(sp)
 200349c:	00808074 	movhi	r2,513
 20034a0:	10aac404 	addi	r2,r2,-21744
 20034a4:	18801426 	beq	r3,r2,20034f8 <__svfscanf_r+0x1264>
 20034a8:	d9c0a117 	ldw	r7,644(sp)
 20034ac:	d940a617 	ldw	r5,664(sp)
 20034b0:	000d883a 	mov	r6,zero
 20034b4:	b009883a 	mov	r4,r22
 20034b8:	200a7f80 	call	200a7f8 <_strtoll_r>
 20034bc:	100d883a 	mov	r6,r2
 20034c0:	180f883a 	mov	r7,r3
 20034c4:	d900a417 	ldw	r4,656(sp)
 20034c8:	20800017 	ldw	r2,0(r4)
 20034cc:	21000104 	addi	r4,r4,4
 20034d0:	d900a415 	stw	r4,656(sp)
 20034d4:	11c00115 	stw	r7,4(r2)
 20034d8:	11800015 	stw	r6,0(r2)
 20034dc:	003fba06 	br	20033c8 <__svfscanf_r+0x1134>
 20034e0:	d900a417 	ldw	r4,656(sp)
 20034e4:	20800017 	ldw	r2,0(r4)
 20034e8:	21000104 	addi	r4,r4,4
 20034ec:	d900a415 	stw	r4,656(sp)
 20034f0:	10c00015 	stw	r3,0(r2)
 20034f4:	003fb406 	br	20033c8 <__svfscanf_r+0x1134>
 20034f8:	d9c0a117 	ldw	r7,644(sp)
 20034fc:	d940a617 	ldw	r5,664(sp)
 2003500:	000d883a 	mov	r6,zero
 2003504:	b009883a 	mov	r4,r22
 2003508:	200ad640 	call	200ad64 <_strtoull_r>
 200350c:	100d883a 	mov	r6,r2
 2003510:	180f883a 	mov	r7,r3
 2003514:	003feb06 	br	20034c4 <__svfscanf_r+0x1230>
 2003518:	d8c0a117 	ldw	r3,644(sp)
 200351c:	18c5883a 	add	r2,r3,r3
 2003520:	00c08074 	movhi	r3,513
 2003524:	18c58084 	addi	r3,r3,5634
 2003528:	10c5883a 	add	r2,r2,r3
 200352c:	1080000f 	ldh	r2,0(r2)
 2003530:	00fd1fc4 	movi	r3,-2945
 2003534:	90e4703a 	and	r18,r18,r3
 2003538:	d880a115 	stw	r2,644(sp)
 200353c:	003faa06 	br	20033e8 <__svfscanf_r+0x1154>
 2003540:	d900a117 	ldw	r4,644(sp)
 2003544:	00c08074 	movhi	r3,513
 2003548:	18c58084 	addi	r3,r3,5634
 200354c:	2105883a 	add	r2,r4,r4
 2003550:	10c5883a 	add	r2,r2,r3
 2003554:	1080000f 	ldh	r2,0(r2)
 2003558:	00c00204 	movi	r3,8
 200355c:	d880a115 	stw	r2,644(sp)
 2003560:	18bf140e 	bge	r3,r2,20031b4 <__svfscanf_r+0xf20>
 2003564:	00bd1fc4 	movi	r2,-2945
 2003568:	90a4703a 	and	r18,r18,r2
 200356c:	003f9e06 	br	20033e8 <__svfscanf_r+0x1154>
 2003570:	d8c0a117 	ldw	r3,644(sp)
 2003574:	00800284 	movi	r2,10
 2003578:	10fffa16 	blt	r2,r3,2003564 <__svfscanf_r+0x12d0>
 200357c:	003f0d06 	br	20031b4 <__svfscanf_r+0xf20>
 2003580:	90c1800c 	andi	r3,r18,1536
 2003584:	00808004 	movi	r2,512
 2003588:	18bf0a1e 	bne	r3,r2,20031b4 <__svfscanf_r+0xf20>
 200358c:	00bf7fc4 	movi	r2,-513
 2003590:	9084703a 	and	r2,r18,r2
 2003594:	01000404 	movi	r4,16
 2003598:	14814014 	ori	r18,r2,1280
 200359c:	d900a115 	stw	r4,644(sp)
 20035a0:	003f9106 	br	20033e8 <__svfscanf_r+0x1154>
 20035a4:	d880a417 	ldw	r2,656(sp)
 20035a8:	dd400404 	addi	r21,sp,16
 20035ac:	14800017 	ldw	r18,0(r2)
 20035b0:	9027883a 	mov	r19,r18
 20035b4:	81000017 	ldw	r4,0(r16)
 20035b8:	20800003 	ldbu	r2,0(r4)
 20035bc:	a885883a 	add	r2,r21,r2
 20035c0:	10c00007 	ldb	r3,0(r2)
 20035c4:	18001426 	beq	r3,zero,2003618 <__svfscanf_r+0x1384>
 20035c8:	d8c0a317 	ldw	r3,652(sp)
 20035cc:	80800117 	ldw	r2,4(r16)
 20035d0:	21800044 	addi	r6,r4,1
 20035d4:	18ffffc4 	addi	r3,r3,-1
 20035d8:	d8c0a315 	stw	r3,652(sp)
 20035dc:	10ffffc4 	addi	r3,r2,-1
 20035e0:	80c00115 	stw	r3,4(r16)
 20035e4:	20800003 	ldbu	r2,0(r4)
 20035e8:	90800005 	stb	r2,0(r18)
 20035ec:	d900a317 	ldw	r4,652(sp)
 20035f0:	81800015 	stw	r6,0(r16)
 20035f4:	94800044 	addi	r18,r18,1
 20035f8:	20000726 	beq	r4,zero,2003618 <__svfscanf_r+0x1384>
 20035fc:	80800117 	ldw	r2,4(r16)
 2003600:	00bfec16 	blt	zero,r2,20035b4 <__svfscanf_r+0x1320>
 2003604:	b009883a 	mov	r4,r22
 2003608:	800b883a 	mov	r5,r16
 200360c:	200884c0 	call	200884c <__srefill_r>
 2003610:	103fe826 	beq	r2,zero,20035b4 <__svfscanf_r+0x1320>
 2003614:	9cbb7426 	beq	r19,r18,20023e8 <__svfscanf_r+0x154>
 2003618:	94e7c83a 	sub	r19,r18,r19
 200361c:	983b5226 	beq	r19,zero,2002368 <__svfscanf_r+0xd4>
 2003620:	90000005 	stb	zero,0(r18)
 2003624:	d880a417 	ldw	r2,656(sp)
 2003628:	d8c0a217 	ldw	r3,648(sp)
 200362c:	8ce3883a 	add	r17,r17,r19
 2003630:	10800104 	addi	r2,r2,4
 2003634:	18c00044 	addi	r3,r3,1
 2003638:	d880a415 	stw	r2,656(sp)
 200363c:	d8c0a215 	stw	r3,648(sp)
 2003640:	003b2706 	br	20022e0 <__svfscanf_r+0x4c>
 2003644:	9cc00414 	ori	r19,r19,16
 2003648:	003b6e06 	br	2002404 <__svfscanf_r+0x170>
 200364c:	00c00404 	movi	r3,16
 2003650:	01008074 	movhi	r4,513
 2003654:	212ac404 	addi	r4,r4,-21744
 2003658:	9cc08014 	ori	r19,r19,512
 200365c:	054000c4 	movi	r21,3
 2003660:	d8c0a115 	stw	r3,644(sp)
 2003664:	d900a015 	stw	r4,640(sp)
 2003668:	003bf806 	br	200264c <__svfscanf_r+0x3b8>
 200366c:	9880040c 	andi	r2,r19,16
 2003670:	10001926 	beq	r2,zero,20036d8 <__svfscanf_r+0x1444>
 2003674:	0027883a 	mov	r19,zero
 2003678:	00000b06 	br	20036a8 <__svfscanf_r+0x1414>
 200367c:	80800017 	ldw	r2,0(r16)
 2003680:	b009883a 	mov	r4,r22
 2003684:	800b883a 	mov	r5,r16
 2003688:	148d883a 	add	r6,r2,r18
 200368c:	81800015 	stw	r6,0(r16)
 2003690:	9ca7883a 	add	r19,r19,r18
 2003694:	200884c0 	call	200884c <__srefill_r>
 2003698:	103c711e 	bne	r2,zero,2002860 <__svfscanf_r+0x5cc>
 200369c:	d900a317 	ldw	r4,652(sp)
 20036a0:	2489c83a 	sub	r4,r4,r18
 20036a4:	d900a315 	stw	r4,652(sp)
 20036a8:	84800117 	ldw	r18,4(r16)
 20036ac:	d8c0a317 	ldw	r3,652(sp)
 20036b0:	90fff216 	blt	r18,r3,200367c <__svfscanf_r+0x13e8>
 20036b4:	d900a317 	ldw	r4,652(sp)
 20036b8:	80800017 	ldw	r2,0(r16)
 20036bc:	9927883a 	add	r19,r19,r4
 20036c0:	9107c83a 	sub	r3,r18,r4
 20036c4:	110d883a 	add	r6,r2,r4
 20036c8:	8ce3883a 	add	r17,r17,r19
 20036cc:	80c00115 	stw	r3,4(r16)
 20036d0:	81800015 	stw	r6,0(r16)
 20036d4:	003b0206 	br	20022e0 <__svfscanf_r+0x4c>
 20036d8:	d880a417 	ldw	r2,656(sp)
 20036dc:	d980a317 	ldw	r6,652(sp)
 20036e0:	01400044 	movi	r5,1
 20036e4:	11000017 	ldw	r4,0(r2)
 20036e8:	800f883a 	mov	r7,r16
 20036ec:	2005a080 	call	2005a08 <fread>
 20036f0:	103b3d26 	beq	r2,zero,20023e8 <__svfscanf_r+0x154>
 20036f4:	d8c0a417 	ldw	r3,656(sp)
 20036f8:	d900a217 	ldw	r4,648(sp)
 20036fc:	88a3883a 	add	r17,r17,r2
 2003700:	18c00104 	addi	r3,r3,4
 2003704:	21000044 	addi	r4,r4,1
 2003708:	d8c0a415 	stw	r3,656(sp)
 200370c:	d900a215 	stw	r4,648(sp)
 2003710:	003af306 	br	20022e0 <__svfscanf_r+0x4c>
 2003714:	8080030b 	ldhu	r2,12(r16)
 2003718:	1080100c 	andi	r2,r2,64
 200371c:	103b1226 	beq	r2,zero,2002368 <__svfscanf_r+0xd4>
 2003720:	003b3306 	br	20023f0 <__svfscanf_r+0x15c>
 2003724:	983b1026 	beq	r19,zero,2002368 <__svfscanf_r+0xd4>
 2003728:	8ce3883a 	add	r17,r17,r19
 200372c:	003aec06 	br	20022e0 <__svfscanf_r+0x4c>
 2003730:	983c9626 	beq	r19,zero,200298c <__svfscanf_r+0x6f8>
 2003734:	9cffffc4 	addi	r19,r19,-1
 2003738:	d8c04404 	addi	r3,sp,272
 200373c:	1cc5883a 	add	r2,r3,r19
 2003740:	11400003 	ldbu	r5,0(r2)
 2003744:	b009883a 	mov	r4,r22
 2003748:	800d883a 	mov	r6,r16
 200374c:	200b1300 	call	200b130 <_ungetc_r>
 2003750:	003ff706 	br	2003730 <__svfscanf_r+0x149c>
 2003754:	00bfff84 	movi	r2,-2
 2003758:	18bc7a1e 	bne	r3,r2,2002944 <__svfscanf_r+0x6b0>
 200375c:	003c8406 	br	2002970 <__svfscanf_r+0x6dc>
 2003760:	d900a417 	ldw	r4,656(sp)
 2003764:	25400017 	ldw	r21,0(r4)
 2003768:	21000104 	addi	r4,r4,4
 200376c:	d900a415 	stw	r4,656(sp)
 2003770:	003c4a06 	br	200289c <__svfscanf_r+0x608>
 2003774:	00bfff84 	movi	r2,-2
 2003778:	18bc0f1e 	bne	r3,r2,20027b8 <__svfscanf_r+0x524>
 200377c:	003c1506 	br	20027d4 <__svfscanf_r+0x540>
 2003780:	b009883a 	mov	r4,r22
 2003784:	800b883a 	mov	r5,r16
 2003788:	200884c0 	call	200884c <__srefill_r>
 200378c:	103c1326 	beq	r2,zero,20027dc <__svfscanf_r+0x548>
 2003790:	903b151e 	bne	r18,zero,20023e8 <__svfscanf_r+0x154>
 2003794:	a83ad21e 	bne	r21,zero,20022e0 <__svfscanf_r+0x4c>
 2003798:	d880a217 	ldw	r2,648(sp)
 200379c:	10800044 	addi	r2,r2,1
 20037a0:	d880a215 	stw	r2,648(sp)
 20037a4:	003ace06 	br	20022e0 <__svfscanf_r+0x4c>
 20037a8:	0027883a 	mov	r19,zero
 20037ac:	003bdd06 	br	2002724 <__svfscanf_r+0x490>
 20037b0:	9cc00114 	ori	r19,r19,4
 20037b4:	003b1306 	br	2002404 <__svfscanf_r+0x170>
 20037b8:	05400104 	movi	r21,4
 20037bc:	003ba306 	br	200264c <__svfscanf_r+0x3b8>
 20037c0:	9cc00054 	ori	r19,r19,1
 20037c4:	00808074 	movhi	r2,513
 20037c8:	10a96404 	addi	r2,r2,-23152
 20037cc:	00c00284 	movi	r3,10
 20037d0:	054000c4 	movi	r21,3
 20037d4:	d880a015 	stw	r2,640(sp)
 20037d8:	d8c0a115 	stw	r3,644(sp)
 20037dc:	003b9b06 	br	200264c <__svfscanf_r+0x3b8>
 20037e0:	9cc01014 	ori	r19,r19,64
 20037e4:	002b883a 	mov	r21,zero
 20037e8:	003b9806 	br	200264c <__svfscanf_r+0x3b8>
 20037ec:	a00b883a 	mov	r5,r20
 20037f0:	d9000404 	addi	r4,sp,16
 20037f4:	2008b0c0 	call	2008b0c <__sccl>
 20037f8:	1029883a 	mov	r20,r2
 20037fc:	9cc01014 	ori	r19,r19,64
 2003800:	05400044 	movi	r21,1
 2003804:	003b9106 	br	200264c <__svfscanf_r+0x3b8>
 2003808:	9cc00054 	ori	r19,r19,1
 200380c:	00800204 	movi	r2,8
 2003810:	00c08074 	movhi	r3,513
 2003814:	18eac404 	addi	r3,r3,-21744
 2003818:	054000c4 	movi	r21,3
 200381c:	d880a115 	stw	r2,644(sp)
 2003820:	d8c0a015 	stw	r3,640(sp)
 2003824:	003b8906 	br	200264c <__svfscanf_r+0x3b8>
 2003828:	9880040c 	andi	r2,r19,16
 200382c:	103aac1e 	bne	r2,zero,20022e0 <__svfscanf_r+0x4c>
 2003830:	9880010c 	andi	r2,r19,4
 2003834:	10002426 	beq	r2,zero,20038c8 <__svfscanf_r+0x1634>
 2003838:	d900a417 	ldw	r4,656(sp)
 200383c:	20800017 	ldw	r2,0(r4)
 2003840:	21000104 	addi	r4,r4,4
 2003844:	d900a415 	stw	r4,656(sp)
 2003848:	1440000d 	sth	r17,0(r2)
 200384c:	003aa406 	br	20022e0 <__svfscanf_r+0x4c>
 2003850:	9cc00094 	ori	r19,r19,2
 2003854:	003aeb06 	br	2002404 <__svfscanf_r+0x170>
 2003858:	05400084 	movi	r21,2
 200385c:	003b7b06 	br	200264c <__svfscanf_r+0x3b8>
 2003860:	00800404 	movi	r2,16
 2003864:	00c08074 	movhi	r3,513
 2003868:	18eac404 	addi	r3,r3,-21744
 200386c:	9cc08814 	ori	r19,r19,544
 2003870:	054000c4 	movi	r21,3
 2003874:	d880a115 	stw	r2,644(sp)
 2003878:	d8c0a015 	stw	r3,640(sp)
 200387c:	003b7306 	br	200264c <__svfscanf_r+0x3b8>
 2003880:	0009883a 	mov	r4,zero
 2003884:	2008bcc0 	call	2008bcc <nanf>
 2003888:	b8800015 	stw	r2,0(r23)
 200388c:	003d2706 	br	2002d2c <__svfscanf_r+0xa98>
 2003890:	a0c00007 	ldb	r3,0(r20)
 2003894:	00801b04 	movi	r2,108
 2003898:	18800826 	beq	r3,r2,20038bc <__svfscanf_r+0x1628>
 200389c:	9cc00054 	ori	r19,r19,1
 20038a0:	003ad806 	br	2002404 <__svfscanf_r+0x170>
 20038a4:	01008074 	movhi	r4,513
 20038a8:	21296404 	addi	r4,r4,-23152
 20038ac:	054000c4 	movi	r21,3
 20038b0:	d900a015 	stw	r4,640(sp)
 20038b4:	d800a115 	stw	zero,644(sp)
 20038b8:	003b6406 	br	200264c <__svfscanf_r+0x3b8>
 20038bc:	a5000044 	addi	r20,r20,1
 20038c0:	9cc00094 	ori	r19,r19,2
 20038c4:	003acf06 	br	2002404 <__svfscanf_r+0x170>
 20038c8:	9880004c 	andi	r2,r19,1
 20038cc:	1005003a 	cmpeq	r2,r2,zero
 20038d0:	10000a26 	beq	r2,zero,20038fc <__svfscanf_r+0x1668>
 20038d4:	9880008c 	andi	r2,r19,2
 20038d8:	10000826 	beq	r2,zero,20038fc <__svfscanf_r+0x1668>
 20038dc:	d900a417 	ldw	r4,656(sp)
 20038e0:	8807d7fa 	srai	r3,r17,31
 20038e4:	20800017 	ldw	r2,0(r4)
 20038e8:	21000104 	addi	r4,r4,4
 20038ec:	d900a415 	stw	r4,656(sp)
 20038f0:	14400015 	stw	r17,0(r2)
 20038f4:	10c00115 	stw	r3,4(r2)
 20038f8:	003a7906 	br	20022e0 <__svfscanf_r+0x4c>
 20038fc:	d8c0a417 	ldw	r3,656(sp)
 2003900:	18800017 	ldw	r2,0(r3)
 2003904:	18c00104 	addi	r3,r3,4
 2003908:	d8c0a415 	stw	r3,656(sp)
 200390c:	14400015 	stw	r17,0(r2)
 2003910:	003a7306 	br	20022e0 <__svfscanf_r+0x4c>

02003914 <__svfscanf>:
 2003914:	00808074 	movhi	r2,513
 2003918:	10899604 	addi	r2,r2,9816
 200391c:	2013883a 	mov	r9,r4
 2003920:	11000017 	ldw	r4,0(r2)
 2003924:	2805883a 	mov	r2,r5
 2003928:	300f883a 	mov	r7,r6
 200392c:	480b883a 	mov	r5,r9
 2003930:	100d883a 	mov	r6,r2
 2003934:	20022941 	jmpi	2002294 <__svfscanf_r>

02003938 <_vfscanf_r>:
 2003938:	defffb04 	addi	sp,sp,-20
 200393c:	dcc00315 	stw	r19,12(sp)
 2003940:	dc800215 	stw	r18,8(sp)
 2003944:	dc400115 	stw	r17,4(sp)
 2003948:	dc000015 	stw	r16,0(sp)
 200394c:	dfc00415 	stw	ra,16(sp)
 2003950:	2021883a 	mov	r16,r4
 2003954:	2823883a 	mov	r17,r5
 2003958:	3025883a 	mov	r18,r6
 200395c:	3827883a 	mov	r19,r7
 2003960:	20000226 	beq	r4,zero,200396c <_vfscanf_r+0x34>
 2003964:	20800e17 	ldw	r2,56(r4)
 2003968:	10000b26 	beq	r2,zero,2003998 <_vfscanf_r+0x60>
 200396c:	8009883a 	mov	r4,r16
 2003970:	880b883a 	mov	r5,r17
 2003974:	900d883a 	mov	r6,r18
 2003978:	980f883a 	mov	r7,r19
 200397c:	dfc00417 	ldw	ra,16(sp)
 2003980:	dcc00317 	ldw	r19,12(sp)
 2003984:	dc800217 	ldw	r18,8(sp)
 2003988:	dc400117 	ldw	r17,4(sp)
 200398c:	dc000017 	ldw	r16,0(sp)
 2003990:	dec00504 	addi	sp,sp,20
 2003994:	20022941 	jmpi	2002294 <__svfscanf_r>
 2003998:	20055b40 	call	20055b4 <__sinit>
 200399c:	003ff306 	br	200396c <_vfscanf_r+0x34>

020039a0 <vfscanf>:
 20039a0:	defffb04 	addi	sp,sp,-20
 20039a4:	dcc00315 	stw	r19,12(sp)
 20039a8:	04c08074 	movhi	r19,513
 20039ac:	9cc99604 	addi	r19,r19,9816
 20039b0:	98c00017 	ldw	r3,0(r19)
 20039b4:	dc800215 	stw	r18,8(sp)
 20039b8:	dc400115 	stw	r17,4(sp)
 20039bc:	dc000015 	stw	r16,0(sp)
 20039c0:	dfc00415 	stw	ra,16(sp)
 20039c4:	2021883a 	mov	r16,r4
 20039c8:	2823883a 	mov	r17,r5
 20039cc:	3025883a 	mov	r18,r6
 20039d0:	18000326 	beq	r3,zero,20039e0 <vfscanf+0x40>
 20039d4:	18800e17 	ldw	r2,56(r3)
 20039d8:	1809883a 	mov	r4,r3
 20039dc:	10000b26 	beq	r2,zero,2003a0c <vfscanf+0x6c>
 20039e0:	99000017 	ldw	r4,0(r19)
 20039e4:	800b883a 	mov	r5,r16
 20039e8:	880d883a 	mov	r6,r17
 20039ec:	900f883a 	mov	r7,r18
 20039f0:	dfc00417 	ldw	ra,16(sp)
 20039f4:	dcc00317 	ldw	r19,12(sp)
 20039f8:	dc800217 	ldw	r18,8(sp)
 20039fc:	dc400117 	ldw	r17,4(sp)
 2003a00:	dc000017 	ldw	r16,0(sp)
 2003a04:	dec00504 	addi	sp,sp,20
 2003a08:	20022941 	jmpi	2002294 <__svfscanf_r>
 2003a0c:	20055b40 	call	20055b4 <__sinit>
 2003a10:	003ff306 	br	20039e0 <vfscanf+0x40>

02003a14 <__swsetup_r>:
 2003a14:	00808074 	movhi	r2,513
 2003a18:	10899604 	addi	r2,r2,9816
 2003a1c:	10c00017 	ldw	r3,0(r2)
 2003a20:	defffd04 	addi	sp,sp,-12
 2003a24:	dc400115 	stw	r17,4(sp)
 2003a28:	dc000015 	stw	r16,0(sp)
 2003a2c:	dfc00215 	stw	ra,8(sp)
 2003a30:	2023883a 	mov	r17,r4
 2003a34:	2821883a 	mov	r16,r5
 2003a38:	18000226 	beq	r3,zero,2003a44 <__swsetup_r+0x30>
 2003a3c:	18800e17 	ldw	r2,56(r3)
 2003a40:	10001f26 	beq	r2,zero,2003ac0 <__swsetup_r+0xac>
 2003a44:	8100030b 	ldhu	r4,12(r16)
 2003a48:	2080020c 	andi	r2,r4,8
 2003a4c:	10002826 	beq	r2,zero,2003af0 <__swsetup_r+0xdc>
 2003a50:	81400417 	ldw	r5,16(r16)
 2003a54:	28001d26 	beq	r5,zero,2003acc <__swsetup_r+0xb8>
 2003a58:	2080004c 	andi	r2,r4,1
 2003a5c:	1005003a 	cmpeq	r2,r2,zero
 2003a60:	10000b26 	beq	r2,zero,2003a90 <__swsetup_r+0x7c>
 2003a64:	2080008c 	andi	r2,r4,2
 2003a68:	10001226 	beq	r2,zero,2003ab4 <__swsetup_r+0xa0>
 2003a6c:	0005883a 	mov	r2,zero
 2003a70:	80800215 	stw	r2,8(r16)
 2003a74:	28000b26 	beq	r5,zero,2003aa4 <__swsetup_r+0x90>
 2003a78:	0005883a 	mov	r2,zero
 2003a7c:	dfc00217 	ldw	ra,8(sp)
 2003a80:	dc400117 	ldw	r17,4(sp)
 2003a84:	dc000017 	ldw	r16,0(sp)
 2003a88:	dec00304 	addi	sp,sp,12
 2003a8c:	f800283a 	ret
 2003a90:	80800517 	ldw	r2,20(r16)
 2003a94:	80000215 	stw	zero,8(r16)
 2003a98:	0085c83a 	sub	r2,zero,r2
 2003a9c:	80800615 	stw	r2,24(r16)
 2003aa0:	283ff51e 	bne	r5,zero,2003a78 <__swsetup_r+0x64>
 2003aa4:	2080200c 	andi	r2,r4,128
 2003aa8:	103ff326 	beq	r2,zero,2003a78 <__swsetup_r+0x64>
 2003aac:	00bfffc4 	movi	r2,-1
 2003ab0:	003ff206 	br	2003a7c <__swsetup_r+0x68>
 2003ab4:	80800517 	ldw	r2,20(r16)
 2003ab8:	80800215 	stw	r2,8(r16)
 2003abc:	003fed06 	br	2003a74 <__swsetup_r+0x60>
 2003ac0:	1809883a 	mov	r4,r3
 2003ac4:	20055b40 	call	20055b4 <__sinit>
 2003ac8:	003fde06 	br	2003a44 <__swsetup_r+0x30>
 2003acc:	20c0a00c 	andi	r3,r4,640
 2003ad0:	00808004 	movi	r2,512
 2003ad4:	18bfe026 	beq	r3,r2,2003a58 <__swsetup_r+0x44>
 2003ad8:	8809883a 	mov	r4,r17
 2003adc:	800b883a 	mov	r5,r16
 2003ae0:	20065940 	call	2006594 <__smakebuf_r>
 2003ae4:	8100030b 	ldhu	r4,12(r16)
 2003ae8:	81400417 	ldw	r5,16(r16)
 2003aec:	003fda06 	br	2003a58 <__swsetup_r+0x44>
 2003af0:	2080040c 	andi	r2,r4,16
 2003af4:	103fed26 	beq	r2,zero,2003aac <__swsetup_r+0x98>
 2003af8:	2080010c 	andi	r2,r4,4
 2003afc:	10001226 	beq	r2,zero,2003b48 <__swsetup_r+0x134>
 2003b00:	81400c17 	ldw	r5,48(r16)
 2003b04:	28000526 	beq	r5,zero,2003b1c <__swsetup_r+0x108>
 2003b08:	80801004 	addi	r2,r16,64
 2003b0c:	28800226 	beq	r5,r2,2003b18 <__swsetup_r+0x104>
 2003b10:	8809883a 	mov	r4,r17
 2003b14:	2005b740 	call	2005b74 <_free_r>
 2003b18:	80000c15 	stw	zero,48(r16)
 2003b1c:	8080030b 	ldhu	r2,12(r16)
 2003b20:	81400417 	ldw	r5,16(r16)
 2003b24:	80000115 	stw	zero,4(r16)
 2003b28:	10bff6cc 	andi	r2,r2,65499
 2003b2c:	8080030d 	sth	r2,12(r16)
 2003b30:	81400015 	stw	r5,0(r16)
 2003b34:	8080030b 	ldhu	r2,12(r16)
 2003b38:	10800214 	ori	r2,r2,8
 2003b3c:	113fffcc 	andi	r4,r2,65535
 2003b40:	8080030d 	sth	r2,12(r16)
 2003b44:	003fc306 	br	2003a54 <__swsetup_r+0x40>
 2003b48:	81400417 	ldw	r5,16(r16)
 2003b4c:	003ff906 	br	2003b34 <__swsetup_r+0x120>

02003b50 <quorem>:
 2003b50:	28c00417 	ldw	r3,16(r5)
 2003b54:	20800417 	ldw	r2,16(r4)
 2003b58:	defff604 	addi	sp,sp,-40
 2003b5c:	ddc00715 	stw	r23,28(sp)
 2003b60:	dd400515 	stw	r21,20(sp)
 2003b64:	dfc00915 	stw	ra,36(sp)
 2003b68:	df000815 	stw	fp,32(sp)
 2003b6c:	dd800615 	stw	r22,24(sp)
 2003b70:	dd000415 	stw	r20,16(sp)
 2003b74:	dcc00315 	stw	r19,12(sp)
 2003b78:	dc800215 	stw	r18,8(sp)
 2003b7c:	dc400115 	stw	r17,4(sp)
 2003b80:	dc000015 	stw	r16,0(sp)
 2003b84:	202f883a 	mov	r23,r4
 2003b88:	282b883a 	mov	r21,r5
 2003b8c:	10c07416 	blt	r2,r3,2003d60 <quorem+0x210>
 2003b90:	1c7fffc4 	addi	r17,r3,-1
 2003b94:	8c45883a 	add	r2,r17,r17
 2003b98:	1085883a 	add	r2,r2,r2
 2003b9c:	2c000504 	addi	r16,r5,20
 2003ba0:	24c00504 	addi	r19,r4,20
 2003ba4:	14ed883a 	add	r22,r2,r19
 2003ba8:	80a5883a 	add	r18,r16,r2
 2003bac:	b7000017 	ldw	fp,0(r22)
 2003bb0:	91400017 	ldw	r5,0(r18)
 2003bb4:	e009883a 	mov	r4,fp
 2003bb8:	29400044 	addi	r5,r5,1
 2003bbc:	200e4980 	call	200e498 <__udivsi3>
 2003bc0:	1029883a 	mov	r20,r2
 2003bc4:	10003c1e 	bne	r2,zero,2003cb8 <quorem+0x168>
 2003bc8:	a80b883a 	mov	r5,r21
 2003bcc:	b809883a 	mov	r4,r23
 2003bd0:	20073c00 	call	20073c0 <__mcmp>
 2003bd4:	10002b16 	blt	r2,zero,2003c84 <quorem+0x134>
 2003bd8:	a5000044 	addi	r20,r20,1
 2003bdc:	980f883a 	mov	r7,r19
 2003be0:	0011883a 	mov	r8,zero
 2003be4:	0009883a 	mov	r4,zero
 2003be8:	81400017 	ldw	r5,0(r16)
 2003bec:	38c00017 	ldw	r3,0(r7)
 2003bf0:	84000104 	addi	r16,r16,4
 2003bf4:	28bfffcc 	andi	r2,r5,65535
 2003bf8:	2085883a 	add	r2,r4,r2
 2003bfc:	11bfffcc 	andi	r6,r2,65535
 2003c00:	193fffcc 	andi	r4,r3,65535
 2003c04:	1004d43a 	srli	r2,r2,16
 2003c08:	280ad43a 	srli	r5,r5,16
 2003c0c:	2189c83a 	sub	r4,r4,r6
 2003c10:	2209883a 	add	r4,r4,r8
 2003c14:	1806d43a 	srli	r3,r3,16
 2003c18:	288b883a 	add	r5,r5,r2
 2003c1c:	200dd43a 	srai	r6,r4,16
 2003c20:	28bfffcc 	andi	r2,r5,65535
 2003c24:	1887c83a 	sub	r3,r3,r2
 2003c28:	1987883a 	add	r3,r3,r6
 2003c2c:	3900000d 	sth	r4,0(r7)
 2003c30:	38c0008d 	sth	r3,2(r7)
 2003c34:	2808d43a 	srli	r4,r5,16
 2003c38:	39c00104 	addi	r7,r7,4
 2003c3c:	1811d43a 	srai	r8,r3,16
 2003c40:	943fe92e 	bgeu	r18,r16,2003be8 <quorem+0x98>
 2003c44:	8c45883a 	add	r2,r17,r17
 2003c48:	1085883a 	add	r2,r2,r2
 2003c4c:	9885883a 	add	r2,r19,r2
 2003c50:	10c00017 	ldw	r3,0(r2)
 2003c54:	18000b1e 	bne	r3,zero,2003c84 <quorem+0x134>
 2003c58:	113fff04 	addi	r4,r2,-4
 2003c5c:	9900082e 	bgeu	r19,r4,2003c80 <quorem+0x130>
 2003c60:	10bfff17 	ldw	r2,-4(r2)
 2003c64:	10000326 	beq	r2,zero,2003c74 <quorem+0x124>
 2003c68:	00000506 	br	2003c80 <quorem+0x130>
 2003c6c:	20800017 	ldw	r2,0(r4)
 2003c70:	1000031e 	bne	r2,zero,2003c80 <quorem+0x130>
 2003c74:	213fff04 	addi	r4,r4,-4
 2003c78:	8c7fffc4 	addi	r17,r17,-1
 2003c7c:	993ffb36 	bltu	r19,r4,2003c6c <quorem+0x11c>
 2003c80:	bc400415 	stw	r17,16(r23)
 2003c84:	a005883a 	mov	r2,r20
 2003c88:	dfc00917 	ldw	ra,36(sp)
 2003c8c:	df000817 	ldw	fp,32(sp)
 2003c90:	ddc00717 	ldw	r23,28(sp)
 2003c94:	dd800617 	ldw	r22,24(sp)
 2003c98:	dd400517 	ldw	r21,20(sp)
 2003c9c:	dd000417 	ldw	r20,16(sp)
 2003ca0:	dcc00317 	ldw	r19,12(sp)
 2003ca4:	dc800217 	ldw	r18,8(sp)
 2003ca8:	dc400117 	ldw	r17,4(sp)
 2003cac:	dc000017 	ldw	r16,0(sp)
 2003cb0:	dec00a04 	addi	sp,sp,40
 2003cb4:	f800283a 	ret
 2003cb8:	980f883a 	mov	r7,r19
 2003cbc:	8011883a 	mov	r8,r16
 2003cc0:	0013883a 	mov	r9,zero
 2003cc4:	000d883a 	mov	r6,zero
 2003cc8:	40c00017 	ldw	r3,0(r8)
 2003ccc:	39000017 	ldw	r4,0(r7)
 2003cd0:	42000104 	addi	r8,r8,4
 2003cd4:	18bfffcc 	andi	r2,r3,65535
 2003cd8:	a085383a 	mul	r2,r20,r2
 2003cdc:	1806d43a 	srli	r3,r3,16
 2003ce0:	217fffcc 	andi	r5,r4,65535
 2003ce4:	3085883a 	add	r2,r6,r2
 2003ce8:	11bfffcc 	andi	r6,r2,65535
 2003cec:	a0c7383a 	mul	r3,r20,r3
 2003cf0:	1004d43a 	srli	r2,r2,16
 2003cf4:	298bc83a 	sub	r5,r5,r6
 2003cf8:	2a4b883a 	add	r5,r5,r9
 2003cfc:	2008d43a 	srli	r4,r4,16
 2003d00:	1887883a 	add	r3,r3,r2
 2003d04:	280dd43a 	srai	r6,r5,16
 2003d08:	18bfffcc 	andi	r2,r3,65535
 2003d0c:	2089c83a 	sub	r4,r4,r2
 2003d10:	2189883a 	add	r4,r4,r6
 2003d14:	3900008d 	sth	r4,2(r7)
 2003d18:	3940000d 	sth	r5,0(r7)
 2003d1c:	180cd43a 	srli	r6,r3,16
 2003d20:	39c00104 	addi	r7,r7,4
 2003d24:	2013d43a 	srai	r9,r4,16
 2003d28:	923fe72e 	bgeu	r18,r8,2003cc8 <quorem+0x178>
 2003d2c:	e03fa61e 	bne	fp,zero,2003bc8 <quorem+0x78>
 2003d30:	b0ffff04 	addi	r3,r22,-4
 2003d34:	98c0082e 	bgeu	r19,r3,2003d58 <quorem+0x208>
 2003d38:	b0bfff17 	ldw	r2,-4(r22)
 2003d3c:	10000326 	beq	r2,zero,2003d4c <quorem+0x1fc>
 2003d40:	00000506 	br	2003d58 <quorem+0x208>
 2003d44:	18800017 	ldw	r2,0(r3)
 2003d48:	1000031e 	bne	r2,zero,2003d58 <quorem+0x208>
 2003d4c:	18ffff04 	addi	r3,r3,-4
 2003d50:	8c7fffc4 	addi	r17,r17,-1
 2003d54:	98fffb36 	bltu	r19,r3,2003d44 <quorem+0x1f4>
 2003d58:	bc400415 	stw	r17,16(r23)
 2003d5c:	003f9a06 	br	2003bc8 <quorem+0x78>
 2003d60:	0005883a 	mov	r2,zero
 2003d64:	003fc806 	br	2003c88 <quorem+0x138>

02003d68 <_dtoa_r>:
 2003d68:	22001017 	ldw	r8,64(r4)
 2003d6c:	deffda04 	addi	sp,sp,-152
 2003d70:	dd402115 	stw	r21,132(sp)
 2003d74:	dd002015 	stw	r20,128(sp)
 2003d78:	dc801e15 	stw	r18,120(sp)
 2003d7c:	dc401d15 	stw	r17,116(sp)
 2003d80:	dfc02515 	stw	ra,148(sp)
 2003d84:	df002415 	stw	fp,144(sp)
 2003d88:	ddc02315 	stw	r23,140(sp)
 2003d8c:	dd802215 	stw	r22,136(sp)
 2003d90:	dcc01f15 	stw	r19,124(sp)
 2003d94:	dc001c15 	stw	r16,112(sp)
 2003d98:	d9001615 	stw	r4,88(sp)
 2003d9c:	3023883a 	mov	r17,r6
 2003da0:	2829883a 	mov	r20,r5
 2003da4:	d9c01715 	stw	r7,92(sp)
 2003da8:	dc802817 	ldw	r18,160(sp)
 2003dac:	302b883a 	mov	r21,r6
 2003db0:	40000a26 	beq	r8,zero,2003ddc <_dtoa_r+0x74>
 2003db4:	20801117 	ldw	r2,68(r4)
 2003db8:	400b883a 	mov	r5,r8
 2003dbc:	40800115 	stw	r2,4(r8)
 2003dc0:	20c01117 	ldw	r3,68(r4)
 2003dc4:	00800044 	movi	r2,1
 2003dc8:	10c4983a 	sll	r2,r2,r3
 2003dcc:	40800215 	stw	r2,8(r8)
 2003dd0:	20072640 	call	2007264 <_Bfree>
 2003dd4:	d8c01617 	ldw	r3,88(sp)
 2003dd8:	18001015 	stw	zero,64(r3)
 2003ddc:	8800a316 	blt	r17,zero,200406c <_dtoa_r+0x304>
 2003de0:	90000015 	stw	zero,0(r18)
 2003de4:	a8dffc2c 	andhi	r3,r21,32752
 2003de8:	009ffc34 	movhi	r2,32752
 2003dec:	18809126 	beq	r3,r2,2004034 <_dtoa_r+0x2cc>
 2003df0:	000d883a 	mov	r6,zero
 2003df4:	000f883a 	mov	r7,zero
 2003df8:	a009883a 	mov	r4,r20
 2003dfc:	a80b883a 	mov	r5,r21
 2003e00:	dd001215 	stw	r20,72(sp)
 2003e04:	dd401315 	stw	r21,76(sp)
 2003e08:	200dcdc0 	call	200dcdc <__nedf2>
 2003e0c:	1000171e 	bne	r2,zero,2003e6c <_dtoa_r+0x104>
 2003e10:	d9802717 	ldw	r6,156(sp)
 2003e14:	00800044 	movi	r2,1
 2003e18:	30800015 	stw	r2,0(r6)
 2003e1c:	d8802917 	ldw	r2,164(sp)
 2003e20:	10029b26 	beq	r2,zero,2004890 <_dtoa_r+0xb28>
 2003e24:	d9002917 	ldw	r4,164(sp)
 2003e28:	00808074 	movhi	r2,513
 2003e2c:	10857644 	addi	r2,r2,5593
 2003e30:	10ffffc4 	addi	r3,r2,-1
 2003e34:	20800015 	stw	r2,0(r4)
 2003e38:	1805883a 	mov	r2,r3
 2003e3c:	dfc02517 	ldw	ra,148(sp)
 2003e40:	df002417 	ldw	fp,144(sp)
 2003e44:	ddc02317 	ldw	r23,140(sp)
 2003e48:	dd802217 	ldw	r22,136(sp)
 2003e4c:	dd402117 	ldw	r21,132(sp)
 2003e50:	dd002017 	ldw	r20,128(sp)
 2003e54:	dcc01f17 	ldw	r19,124(sp)
 2003e58:	dc801e17 	ldw	r18,120(sp)
 2003e5c:	dc401d17 	ldw	r17,116(sp)
 2003e60:	dc001c17 	ldw	r16,112(sp)
 2003e64:	dec02604 	addi	sp,sp,152
 2003e68:	f800283a 	ret
 2003e6c:	d9001617 	ldw	r4,88(sp)
 2003e70:	d9401217 	ldw	r5,72(sp)
 2003e74:	d8800104 	addi	r2,sp,4
 2003e78:	a80d883a 	mov	r6,r21
 2003e7c:	d9c00204 	addi	r7,sp,8
 2003e80:	d8800015 	stw	r2,0(sp)
 2003e84:	20078a00 	call	20078a0 <__d2b>
 2003e88:	d8800715 	stw	r2,28(sp)
 2003e8c:	a804d53a 	srli	r2,r21,20
 2003e90:	1101ffcc 	andi	r4,r2,2047
 2003e94:	20008626 	beq	r4,zero,20040b0 <_dtoa_r+0x348>
 2003e98:	d8c01217 	ldw	r3,72(sp)
 2003e9c:	00800434 	movhi	r2,16
 2003ea0:	10bfffc4 	addi	r2,r2,-1
 2003ea4:	ddc00117 	ldw	r23,4(sp)
 2003ea8:	a884703a 	and	r2,r21,r2
 2003eac:	1811883a 	mov	r8,r3
 2003eb0:	124ffc34 	orhi	r9,r2,16368
 2003eb4:	25bf0044 	addi	r22,r4,-1023
 2003eb8:	d8000815 	stw	zero,32(sp)
 2003ebc:	0005883a 	mov	r2,zero
 2003ec0:	00cffe34 	movhi	r3,16376
 2003ec4:	480b883a 	mov	r5,r9
 2003ec8:	4009883a 	mov	r4,r8
 2003ecc:	180f883a 	mov	r7,r3
 2003ed0:	100d883a 	mov	r6,r2
 2003ed4:	200d5440 	call	200d544 <__subdf3>
 2003ed8:	0218dbf4 	movhi	r8,25455
 2003edc:	4210d844 	addi	r8,r8,17249
 2003ee0:	024ff4f4 	movhi	r9,16339
 2003ee4:	4a61e9c4 	addi	r9,r9,-30809
 2003ee8:	480f883a 	mov	r7,r9
 2003eec:	400d883a 	mov	r6,r8
 2003ef0:	180b883a 	mov	r5,r3
 2003ef4:	1009883a 	mov	r4,r2
 2003ef8:	200d6380 	call	200d638 <__muldf3>
 2003efc:	0222d874 	movhi	r8,35681
 2003f00:	42322cc4 	addi	r8,r8,-14157
 2003f04:	024ff1f4 	movhi	r9,16327
 2003f08:	4a628a04 	addi	r9,r9,-30168
 2003f0c:	480f883a 	mov	r7,r9
 2003f10:	400d883a 	mov	r6,r8
 2003f14:	180b883a 	mov	r5,r3
 2003f18:	1009883a 	mov	r4,r2
 2003f1c:	200d5c40 	call	200d5c4 <__adddf3>
 2003f20:	b009883a 	mov	r4,r22
 2003f24:	1021883a 	mov	r16,r2
 2003f28:	1823883a 	mov	r17,r3
 2003f2c:	200df840 	call	200df84 <__floatsidf>
 2003f30:	021427f4 	movhi	r8,20639
 2003f34:	421e7ec4 	addi	r8,r8,31227
 2003f38:	024ff4f4 	movhi	r9,16339
 2003f3c:	4a5104c4 	addi	r9,r9,17427
 2003f40:	480f883a 	mov	r7,r9
 2003f44:	400d883a 	mov	r6,r8
 2003f48:	180b883a 	mov	r5,r3
 2003f4c:	1009883a 	mov	r4,r2
 2003f50:	200d6380 	call	200d638 <__muldf3>
 2003f54:	180f883a 	mov	r7,r3
 2003f58:	880b883a 	mov	r5,r17
 2003f5c:	100d883a 	mov	r6,r2
 2003f60:	8009883a 	mov	r4,r16
 2003f64:	200d5c40 	call	200d5c4 <__adddf3>
 2003f68:	1009883a 	mov	r4,r2
 2003f6c:	180b883a 	mov	r5,r3
 2003f70:	1021883a 	mov	r16,r2
 2003f74:	1823883a 	mov	r17,r3
 2003f78:	200e07c0 	call	200e07c <__fixdfsi>
 2003f7c:	000d883a 	mov	r6,zero
 2003f80:	000f883a 	mov	r7,zero
 2003f84:	8009883a 	mov	r4,r16
 2003f88:	880b883a 	mov	r5,r17
 2003f8c:	d8800d15 	stw	r2,52(sp)
 2003f90:	200de740 	call	200de74 <__ltdf2>
 2003f94:	10031716 	blt	r2,zero,2004bf4 <_dtoa_r+0xe8c>
 2003f98:	d8c00d17 	ldw	r3,52(sp)
 2003f9c:	00800584 	movi	r2,22
 2003fa0:	10c1482e 	bgeu	r2,r3,20044c4 <_dtoa_r+0x75c>
 2003fa4:	01000044 	movi	r4,1
 2003fa8:	d9000c15 	stw	r4,48(sp)
 2003fac:	bd85c83a 	sub	r2,r23,r22
 2003fb0:	11bfffc4 	addi	r6,r2,-1
 2003fb4:	30030b16 	blt	r6,zero,2004be4 <_dtoa_r+0xe7c>
 2003fb8:	d9800a15 	stw	r6,40(sp)
 2003fbc:	d8001115 	stw	zero,68(sp)
 2003fc0:	d8c00d17 	ldw	r3,52(sp)
 2003fc4:	1802ff16 	blt	r3,zero,2004bc4 <_dtoa_r+0xe5c>
 2003fc8:	d9000a17 	ldw	r4,40(sp)
 2003fcc:	d8c00915 	stw	r3,36(sp)
 2003fd0:	d8001015 	stw	zero,64(sp)
 2003fd4:	20c9883a 	add	r4,r4,r3
 2003fd8:	d9000a15 	stw	r4,40(sp)
 2003fdc:	d9001717 	ldw	r4,92(sp)
 2003fe0:	00800244 	movi	r2,9
 2003fe4:	11004636 	bltu	r2,r4,2004100 <_dtoa_r+0x398>
 2003fe8:	00800144 	movi	r2,5
 2003fec:	11020416 	blt	r2,r4,2004800 <_dtoa_r+0xa98>
 2003ff0:	04400044 	movi	r17,1
 2003ff4:	d8c01717 	ldw	r3,92(sp)
 2003ff8:	00800144 	movi	r2,5
 2003ffc:	10c1ed36 	bltu	r2,r3,20047b4 <_dtoa_r+0xa4c>
 2004000:	18c5883a 	add	r2,r3,r3
 2004004:	1085883a 	add	r2,r2,r2
 2004008:	00c08034 	movhi	r3,512
 200400c:	18d00704 	addi	r3,r3,16412
 2004010:	10c5883a 	add	r2,r2,r3
 2004014:	11000017 	ldw	r4,0(r2)
 2004018:	2000683a 	jmp	r4
 200401c:	02004108 	cmpgei	r8,zero,260
 2004020:	02004108 	cmpgei	r8,zero,260
 2004024:	02004b08 	cmpgei	r8,zero,300
 2004028:	02004ae0 	cmpeqi	r8,zero,299
 200402c:	02004b24 	muli	r8,zero,300
 2004030:	02004b30 	cmpltui	r8,zero,300
 2004034:	d9002717 	ldw	r4,156(sp)
 2004038:	0089c3c4 	movi	r2,9999
 200403c:	20800015 	stw	r2,0(r4)
 2004040:	a0001026 	beq	r20,zero,2004084 <_dtoa_r+0x31c>
 2004044:	00c08074 	movhi	r3,513
 2004048:	18c62d04 	addi	r3,r3,6324
 200404c:	d9802917 	ldw	r6,164(sp)
 2004050:	303f7926 	beq	r6,zero,2003e38 <_dtoa_r+0xd0>
 2004054:	188000c7 	ldb	r2,3(r3)
 2004058:	190000c4 	addi	r4,r3,3
 200405c:	1000101e 	bne	r2,zero,20040a0 <_dtoa_r+0x338>
 2004060:	d8802917 	ldw	r2,164(sp)
 2004064:	11000015 	stw	r4,0(r2)
 2004068:	003f7306 	br	2003e38 <_dtoa_r+0xd0>
 200406c:	00a00034 	movhi	r2,32768
 2004070:	10bfffc4 	addi	r2,r2,-1
 2004074:	00c00044 	movi	r3,1
 2004078:	88aa703a 	and	r21,r17,r2
 200407c:	90c00015 	stw	r3,0(r18)
 2004080:	003f5806 	br	2003de4 <_dtoa_r+0x7c>
 2004084:	00800434 	movhi	r2,16
 2004088:	10bfffc4 	addi	r2,r2,-1
 200408c:	a884703a 	and	r2,r21,r2
 2004090:	103fec1e 	bne	r2,zero,2004044 <_dtoa_r+0x2dc>
 2004094:	00c08074 	movhi	r3,513
 2004098:	18c62a04 	addi	r3,r3,6312
 200409c:	003feb06 	br	200404c <_dtoa_r+0x2e4>
 20040a0:	d8802917 	ldw	r2,164(sp)
 20040a4:	19000204 	addi	r4,r3,8
 20040a8:	11000015 	stw	r4,0(r2)
 20040ac:	003f6206 	br	2003e38 <_dtoa_r+0xd0>
 20040b0:	ddc00117 	ldw	r23,4(sp)
 20040b4:	d8800217 	ldw	r2,8(sp)
 20040b8:	01000804 	movi	r4,32
 20040bc:	b8c10c84 	addi	r3,r23,1074
 20040c0:	18a3883a 	add	r17,r3,r2
 20040c4:	2441b80e 	bge	r4,r17,20047a8 <_dtoa_r+0xa40>
 20040c8:	00c01004 	movi	r3,64
 20040cc:	1c47c83a 	sub	r3,r3,r17
 20040d0:	88bff804 	addi	r2,r17,-32
 20040d4:	a8c6983a 	sll	r3,r21,r3
 20040d8:	a084d83a 	srl	r2,r20,r2
 20040dc:	1888b03a 	or	r4,r3,r2
 20040e0:	200e1c80 	call	200e1c8 <__floatunsidf>
 20040e4:	1011883a 	mov	r8,r2
 20040e8:	00bf8434 	movhi	r2,65040
 20040ec:	01000044 	movi	r4,1
 20040f0:	10d3883a 	add	r9,r2,r3
 20040f4:	8dbef344 	addi	r22,r17,-1075
 20040f8:	d9000815 	stw	r4,32(sp)
 20040fc:	003f6f06 	br	2003ebc <_dtoa_r+0x154>
 2004100:	d8001715 	stw	zero,92(sp)
 2004104:	04400044 	movi	r17,1
 2004108:	00bfffc4 	movi	r2,-1
 200410c:	00c00044 	movi	r3,1
 2004110:	d8800e15 	stw	r2,56(sp)
 2004114:	d8002615 	stw	zero,152(sp)
 2004118:	d8800f15 	stw	r2,60(sp)
 200411c:	d8c00b15 	stw	r3,44(sp)
 2004120:	1021883a 	mov	r16,r2
 2004124:	d8801617 	ldw	r2,88(sp)
 2004128:	10001115 	stw	zero,68(r2)
 200412c:	d8801617 	ldw	r2,88(sp)
 2004130:	11401117 	ldw	r5,68(r2)
 2004134:	1009883a 	mov	r4,r2
 2004138:	20077e40 	call	20077e4 <_Balloc>
 200413c:	d8c01617 	ldw	r3,88(sp)
 2004140:	d8800515 	stw	r2,20(sp)
 2004144:	18801015 	stw	r2,64(r3)
 2004148:	00800384 	movi	r2,14
 200414c:	14006836 	bltu	r2,r16,20042f0 <_dtoa_r+0x588>
 2004150:	8805003a 	cmpeq	r2,r17,zero
 2004154:	1000661e 	bne	r2,zero,20042f0 <_dtoa_r+0x588>
 2004158:	d9000d17 	ldw	r4,52(sp)
 200415c:	0102300e 	bge	zero,r4,2004a20 <_dtoa_r+0xcb8>
 2004160:	208003cc 	andi	r2,r4,15
 2004164:	100490fa 	slli	r2,r2,3
 2004168:	2025d13a 	srai	r18,r4,4
 200416c:	00c08074 	movhi	r3,513
 2004170:	18c63f04 	addi	r3,r3,6396
 2004174:	10c5883a 	add	r2,r2,r3
 2004178:	90c0040c 	andi	r3,r18,16
 200417c:	14000017 	ldw	r16,0(r2)
 2004180:	14400117 	ldw	r17,4(r2)
 2004184:	18036a1e 	bne	r3,zero,2004f30 <_dtoa_r+0x11c8>
 2004188:	05800084 	movi	r22,2
 200418c:	90001026 	beq	r18,zero,20041d0 <_dtoa_r+0x468>
 2004190:	04c08074 	movhi	r19,513
 2004194:	9cc67104 	addi	r19,r19,6596
 2004198:	9080004c 	andi	r2,r18,1
 200419c:	1005003a 	cmpeq	r2,r2,zero
 20041a0:	1000081e 	bne	r2,zero,20041c4 <_dtoa_r+0x45c>
 20041a4:	99800017 	ldw	r6,0(r19)
 20041a8:	99c00117 	ldw	r7,4(r19)
 20041ac:	880b883a 	mov	r5,r17
 20041b0:	8009883a 	mov	r4,r16
 20041b4:	200d6380 	call	200d638 <__muldf3>
 20041b8:	1021883a 	mov	r16,r2
 20041bc:	b5800044 	addi	r22,r22,1
 20041c0:	1823883a 	mov	r17,r3
 20041c4:	9025d07a 	srai	r18,r18,1
 20041c8:	9cc00204 	addi	r19,r19,8
 20041cc:	903ff21e 	bne	r18,zero,2004198 <_dtoa_r+0x430>
 20041d0:	a80b883a 	mov	r5,r21
 20041d4:	a009883a 	mov	r4,r20
 20041d8:	880f883a 	mov	r7,r17
 20041dc:	800d883a 	mov	r6,r16
 20041e0:	200d9fc0 	call	200d9fc <__divdf3>
 20041e4:	1029883a 	mov	r20,r2
 20041e8:	182b883a 	mov	r21,r3
 20041ec:	d8c00c17 	ldw	r3,48(sp)
 20041f0:	1805003a 	cmpeq	r2,r3,zero
 20041f4:	1000081e 	bne	r2,zero,2004218 <_dtoa_r+0x4b0>
 20041f8:	0005883a 	mov	r2,zero
 20041fc:	00cffc34 	movhi	r3,16368
 2004200:	180f883a 	mov	r7,r3
 2004204:	a009883a 	mov	r4,r20
 2004208:	a80b883a 	mov	r5,r21
 200420c:	100d883a 	mov	r6,r2
 2004210:	200de740 	call	200de74 <__ltdf2>
 2004214:	1003fe16 	blt	r2,zero,2005210 <_dtoa_r+0x14a8>
 2004218:	b009883a 	mov	r4,r22
 200421c:	200df840 	call	200df84 <__floatsidf>
 2004220:	180b883a 	mov	r5,r3
 2004224:	1009883a 	mov	r4,r2
 2004228:	a00d883a 	mov	r6,r20
 200422c:	a80f883a 	mov	r7,r21
 2004230:	200d6380 	call	200d638 <__muldf3>
 2004234:	0011883a 	mov	r8,zero
 2004238:	02500734 	movhi	r9,16412
 200423c:	1009883a 	mov	r4,r2
 2004240:	180b883a 	mov	r5,r3
 2004244:	480f883a 	mov	r7,r9
 2004248:	400d883a 	mov	r6,r8
 200424c:	200d5c40 	call	200d5c4 <__adddf3>
 2004250:	d9000f17 	ldw	r4,60(sp)
 2004254:	102d883a 	mov	r22,r2
 2004258:	00bf3034 	movhi	r2,64704
 200425c:	18b9883a 	add	fp,r3,r2
 2004260:	e02f883a 	mov	r23,fp
 2004264:	20028f1e 	bne	r4,zero,2004ca4 <_dtoa_r+0xf3c>
 2004268:	0005883a 	mov	r2,zero
 200426c:	00d00534 	movhi	r3,16404
 2004270:	a009883a 	mov	r4,r20
 2004274:	a80b883a 	mov	r5,r21
 2004278:	180f883a 	mov	r7,r3
 200427c:	100d883a 	mov	r6,r2
 2004280:	200d5440 	call	200d544 <__subdf3>
 2004284:	1009883a 	mov	r4,r2
 2004288:	e00f883a 	mov	r7,fp
 200428c:	180b883a 	mov	r5,r3
 2004290:	b00d883a 	mov	r6,r22
 2004294:	1025883a 	mov	r18,r2
 2004298:	1827883a 	mov	r19,r3
 200429c:	200dd640 	call	200dd64 <__gtdf2>
 20042a0:	00834f16 	blt	zero,r2,2004fe0 <_dtoa_r+0x1278>
 20042a4:	e0e0003c 	xorhi	r3,fp,32768
 20042a8:	9009883a 	mov	r4,r18
 20042ac:	980b883a 	mov	r5,r19
 20042b0:	180f883a 	mov	r7,r3
 20042b4:	b00d883a 	mov	r6,r22
 20042b8:	200de740 	call	200de74 <__ltdf2>
 20042bc:	1000080e 	bge	r2,zero,20042e0 <_dtoa_r+0x578>
 20042c0:	0027883a 	mov	r19,zero
 20042c4:	0025883a 	mov	r18,zero
 20042c8:	d8802617 	ldw	r2,152(sp)
 20042cc:	df000517 	ldw	fp,20(sp)
 20042d0:	d8000615 	stw	zero,24(sp)
 20042d4:	0084303a 	nor	r2,zero,r2
 20042d8:	d8800d15 	stw	r2,52(sp)
 20042dc:	00019b06 	br	200494c <_dtoa_r+0xbe4>
 20042e0:	d9801217 	ldw	r6,72(sp)
 20042e4:	d8801317 	ldw	r2,76(sp)
 20042e8:	3029883a 	mov	r20,r6
 20042ec:	102b883a 	mov	r21,r2
 20042f0:	d8c00217 	ldw	r3,8(sp)
 20042f4:	18008516 	blt	r3,zero,200450c <_dtoa_r+0x7a4>
 20042f8:	d9000d17 	ldw	r4,52(sp)
 20042fc:	00800384 	movi	r2,14
 2004300:	11008216 	blt	r2,r4,200450c <_dtoa_r+0x7a4>
 2004304:	200490fa 	slli	r2,r4,3
 2004308:	d9802617 	ldw	r6,152(sp)
 200430c:	00c08074 	movhi	r3,513
 2004310:	18c63f04 	addi	r3,r3,6396
 2004314:	10c5883a 	add	r2,r2,r3
 2004318:	14800017 	ldw	r18,0(r2)
 200431c:	14c00117 	ldw	r19,4(r2)
 2004320:	30031e16 	blt	r6,zero,2004f9c <_dtoa_r+0x1234>
 2004324:	d9000517 	ldw	r4,20(sp)
 2004328:	d8c00f17 	ldw	r3,60(sp)
 200432c:	a823883a 	mov	r17,r21
 2004330:	a021883a 	mov	r16,r20
 2004334:	192b883a 	add	r21,r3,r4
 2004338:	2039883a 	mov	fp,r4
 200433c:	00000f06 	br	200437c <_dtoa_r+0x614>
 2004340:	0005883a 	mov	r2,zero
 2004344:	00d00934 	movhi	r3,16420
 2004348:	5009883a 	mov	r4,r10
 200434c:	580b883a 	mov	r5,r11
 2004350:	180f883a 	mov	r7,r3
 2004354:	100d883a 	mov	r6,r2
 2004358:	200d6380 	call	200d638 <__muldf3>
 200435c:	180b883a 	mov	r5,r3
 2004360:	000d883a 	mov	r6,zero
 2004364:	000f883a 	mov	r7,zero
 2004368:	1009883a 	mov	r4,r2
 200436c:	1021883a 	mov	r16,r2
 2004370:	1823883a 	mov	r17,r3
 2004374:	200dcdc0 	call	200dcdc <__nedf2>
 2004378:	10004526 	beq	r2,zero,2004490 <_dtoa_r+0x728>
 200437c:	900d883a 	mov	r6,r18
 2004380:	980f883a 	mov	r7,r19
 2004384:	8009883a 	mov	r4,r16
 2004388:	880b883a 	mov	r5,r17
 200438c:	200d9fc0 	call	200d9fc <__divdf3>
 2004390:	180b883a 	mov	r5,r3
 2004394:	1009883a 	mov	r4,r2
 2004398:	200e07c0 	call	200e07c <__fixdfsi>
 200439c:	1009883a 	mov	r4,r2
 20043a0:	1029883a 	mov	r20,r2
 20043a4:	200df840 	call	200df84 <__floatsidf>
 20043a8:	180f883a 	mov	r7,r3
 20043ac:	9009883a 	mov	r4,r18
 20043b0:	980b883a 	mov	r5,r19
 20043b4:	100d883a 	mov	r6,r2
 20043b8:	200d6380 	call	200d638 <__muldf3>
 20043bc:	180f883a 	mov	r7,r3
 20043c0:	880b883a 	mov	r5,r17
 20043c4:	8009883a 	mov	r4,r16
 20043c8:	100d883a 	mov	r6,r2
 20043cc:	200d5440 	call	200d544 <__subdf3>
 20043d0:	1015883a 	mov	r10,r2
 20043d4:	a0800c04 	addi	r2,r20,48
 20043d8:	e0800005 	stb	r2,0(fp)
 20043dc:	e7000044 	addi	fp,fp,1
 20043e0:	1817883a 	mov	r11,r3
 20043e4:	e57fd61e 	bne	fp,r21,2004340 <_dtoa_r+0x5d8>
 20043e8:	500d883a 	mov	r6,r10
 20043ec:	180f883a 	mov	r7,r3
 20043f0:	5009883a 	mov	r4,r10
 20043f4:	180b883a 	mov	r5,r3
 20043f8:	200d5c40 	call	200d5c4 <__adddf3>
 20043fc:	100d883a 	mov	r6,r2
 2004400:	9009883a 	mov	r4,r18
 2004404:	980b883a 	mov	r5,r19
 2004408:	180f883a 	mov	r7,r3
 200440c:	1021883a 	mov	r16,r2
 2004410:	1823883a 	mov	r17,r3
 2004414:	200de740 	call	200de74 <__ltdf2>
 2004418:	10000816 	blt	r2,zero,200443c <_dtoa_r+0x6d4>
 200441c:	980b883a 	mov	r5,r19
 2004420:	800d883a 	mov	r6,r16
 2004424:	880f883a 	mov	r7,r17
 2004428:	9009883a 	mov	r4,r18
 200442c:	200dc540 	call	200dc54 <__eqdf2>
 2004430:	1000171e 	bne	r2,zero,2004490 <_dtoa_r+0x728>
 2004434:	a080004c 	andi	r2,r20,1
 2004438:	10001526 	beq	r2,zero,2004490 <_dtoa_r+0x728>
 200443c:	d8800d17 	ldw	r2,52(sp)
 2004440:	d8800415 	stw	r2,16(sp)
 2004444:	e009883a 	mov	r4,fp
 2004448:	213fffc4 	addi	r4,r4,-1
 200444c:	20c00007 	ldb	r3,0(r4)
 2004450:	00800e44 	movi	r2,57
 2004454:	1880081e 	bne	r3,r2,2004478 <_dtoa_r+0x710>
 2004458:	d8800517 	ldw	r2,20(sp)
 200445c:	113ffa1e 	bne	r2,r4,2004448 <_dtoa_r+0x6e0>
 2004460:	d8c00417 	ldw	r3,16(sp)
 2004464:	d9800517 	ldw	r6,20(sp)
 2004468:	00800c04 	movi	r2,48
 200446c:	18c00044 	addi	r3,r3,1
 2004470:	d8c00415 	stw	r3,16(sp)
 2004474:	30800005 	stb	r2,0(r6)
 2004478:	20800003 	ldbu	r2,0(r4)
 200447c:	d8c00417 	ldw	r3,16(sp)
 2004480:	27000044 	addi	fp,r4,1
 2004484:	10800044 	addi	r2,r2,1
 2004488:	d8c00d15 	stw	r3,52(sp)
 200448c:	20800005 	stb	r2,0(r4)
 2004490:	d9001617 	ldw	r4,88(sp)
 2004494:	d9400717 	ldw	r5,28(sp)
 2004498:	20072640 	call	2007264 <_Bfree>
 200449c:	e0000005 	stb	zero,0(fp)
 20044a0:	d9800d17 	ldw	r6,52(sp)
 20044a4:	d8c02717 	ldw	r3,156(sp)
 20044a8:	d9002917 	ldw	r4,164(sp)
 20044ac:	30800044 	addi	r2,r6,1
 20044b0:	18800015 	stw	r2,0(r3)
 20044b4:	20029c26 	beq	r4,zero,2004f28 <_dtoa_r+0x11c0>
 20044b8:	d8c00517 	ldw	r3,20(sp)
 20044bc:	27000015 	stw	fp,0(r4)
 20044c0:	003e5d06 	br	2003e38 <_dtoa_r+0xd0>
 20044c4:	d9800d17 	ldw	r6,52(sp)
 20044c8:	00c08074 	movhi	r3,513
 20044cc:	18c63f04 	addi	r3,r3,6396
 20044d0:	d9001217 	ldw	r4,72(sp)
 20044d4:	300490fa 	slli	r2,r6,3
 20044d8:	d9401317 	ldw	r5,76(sp)
 20044dc:	10c5883a 	add	r2,r2,r3
 20044e0:	12000017 	ldw	r8,0(r2)
 20044e4:	12400117 	ldw	r9,4(r2)
 20044e8:	400d883a 	mov	r6,r8
 20044ec:	480f883a 	mov	r7,r9
 20044f0:	200de740 	call	200de74 <__ltdf2>
 20044f4:	1000030e 	bge	r2,zero,2004504 <_dtoa_r+0x79c>
 20044f8:	d8800d17 	ldw	r2,52(sp)
 20044fc:	10bfffc4 	addi	r2,r2,-1
 2004500:	d8800d15 	stw	r2,52(sp)
 2004504:	d8000c15 	stw	zero,48(sp)
 2004508:	003ea806 	br	2003fac <_dtoa_r+0x244>
 200450c:	d9000b17 	ldw	r4,44(sp)
 2004510:	202cc03a 	cmpne	r22,r4,zero
 2004514:	b000c71e 	bne	r22,zero,2004834 <_dtoa_r+0xacc>
 2004518:	dc001117 	ldw	r16,68(sp)
 200451c:	dc801017 	ldw	r18,64(sp)
 2004520:	0027883a 	mov	r19,zero
 2004524:	04000b0e 	bge	zero,r16,2004554 <_dtoa_r+0x7ec>
 2004528:	d8c00a17 	ldw	r3,40(sp)
 200452c:	00c0090e 	bge	zero,r3,2004554 <_dtoa_r+0x7ec>
 2004530:	8005883a 	mov	r2,r16
 2004534:	1c011316 	blt	r3,r16,2004984 <_dtoa_r+0xc1c>
 2004538:	d9000a17 	ldw	r4,40(sp)
 200453c:	d9801117 	ldw	r6,68(sp)
 2004540:	80a1c83a 	sub	r16,r16,r2
 2004544:	2089c83a 	sub	r4,r4,r2
 2004548:	308dc83a 	sub	r6,r6,r2
 200454c:	d9000a15 	stw	r4,40(sp)
 2004550:	d9801115 	stw	r6,68(sp)
 2004554:	d8801017 	ldw	r2,64(sp)
 2004558:	0080150e 	bge	zero,r2,20045b0 <_dtoa_r+0x848>
 200455c:	d8c00b17 	ldw	r3,44(sp)
 2004560:	1805003a 	cmpeq	r2,r3,zero
 2004564:	1001c91e 	bne	r2,zero,2004c8c <_dtoa_r+0xf24>
 2004568:	04800e0e 	bge	zero,r18,20045a4 <_dtoa_r+0x83c>
 200456c:	d9001617 	ldw	r4,88(sp)
 2004570:	980b883a 	mov	r5,r19
 2004574:	900d883a 	mov	r6,r18
 2004578:	20080180 	call	2008018 <__pow5mult>
 200457c:	d9001617 	ldw	r4,88(sp)
 2004580:	d9800717 	ldw	r6,28(sp)
 2004584:	100b883a 	mov	r5,r2
 2004588:	1027883a 	mov	r19,r2
 200458c:	2007cf40 	call	2007cf4 <__multiply>
 2004590:	d9001617 	ldw	r4,88(sp)
 2004594:	d9400717 	ldw	r5,28(sp)
 2004598:	1023883a 	mov	r17,r2
 200459c:	20072640 	call	2007264 <_Bfree>
 20045a0:	dc400715 	stw	r17,28(sp)
 20045a4:	d9001017 	ldw	r4,64(sp)
 20045a8:	248dc83a 	sub	r6,r4,r18
 20045ac:	30010e1e 	bne	r6,zero,20049e8 <_dtoa_r+0xc80>
 20045b0:	d9001617 	ldw	r4,88(sp)
 20045b4:	04400044 	movi	r17,1
 20045b8:	880b883a 	mov	r5,r17
 20045bc:	2007edc0 	call	2007edc <__i2b>
 20045c0:	d9800917 	ldw	r6,36(sp)
 20045c4:	1025883a 	mov	r18,r2
 20045c8:	0180040e 	bge	zero,r6,20045dc <_dtoa_r+0x874>
 20045cc:	d9001617 	ldw	r4,88(sp)
 20045d0:	100b883a 	mov	r5,r2
 20045d4:	20080180 	call	2008018 <__pow5mult>
 20045d8:	1025883a 	mov	r18,r2
 20045dc:	d8801717 	ldw	r2,92(sp)
 20045e0:	8880f30e 	bge	r17,r2,20049b0 <_dtoa_r+0xc48>
 20045e4:	0023883a 	mov	r17,zero
 20045e8:	d9800917 	ldw	r6,36(sp)
 20045ec:	30019e1e 	bne	r6,zero,2004c68 <_dtoa_r+0xf00>
 20045f0:	00c00044 	movi	r3,1
 20045f4:	d9000a17 	ldw	r4,40(sp)
 20045f8:	20c5883a 	add	r2,r4,r3
 20045fc:	10c007cc 	andi	r3,r2,31
 2004600:	1800841e 	bne	r3,zero,2004814 <_dtoa_r+0xaac>
 2004604:	00800704 	movi	r2,28
 2004608:	d9000a17 	ldw	r4,40(sp)
 200460c:	d9801117 	ldw	r6,68(sp)
 2004610:	80a1883a 	add	r16,r16,r2
 2004614:	2089883a 	add	r4,r4,r2
 2004618:	308d883a 	add	r6,r6,r2
 200461c:	d9000a15 	stw	r4,40(sp)
 2004620:	d9801115 	stw	r6,68(sp)
 2004624:	d8801117 	ldw	r2,68(sp)
 2004628:	0080050e 	bge	zero,r2,2004640 <_dtoa_r+0x8d8>
 200462c:	d9400717 	ldw	r5,28(sp)
 2004630:	d9001617 	ldw	r4,88(sp)
 2004634:	100d883a 	mov	r6,r2
 2004638:	2007ba80 	call	2007ba8 <__lshift>
 200463c:	d8800715 	stw	r2,28(sp)
 2004640:	d8c00a17 	ldw	r3,40(sp)
 2004644:	00c0050e 	bge	zero,r3,200465c <_dtoa_r+0x8f4>
 2004648:	d9001617 	ldw	r4,88(sp)
 200464c:	900b883a 	mov	r5,r18
 2004650:	180d883a 	mov	r6,r3
 2004654:	2007ba80 	call	2007ba8 <__lshift>
 2004658:	1025883a 	mov	r18,r2
 200465c:	d9000c17 	ldw	r4,48(sp)
 2004660:	2005003a 	cmpeq	r2,r4,zero
 2004664:	10016f26 	beq	r2,zero,2004c24 <_dtoa_r+0xebc>
 2004668:	d9000f17 	ldw	r4,60(sp)
 200466c:	0102170e 	bge	zero,r4,2004ecc <_dtoa_r+0x1164>
 2004670:	d9800b17 	ldw	r6,44(sp)
 2004674:	3005003a 	cmpeq	r2,r6,zero
 2004678:	1000881e 	bne	r2,zero,200489c <_dtoa_r+0xb34>
 200467c:	0400050e 	bge	zero,r16,2004694 <_dtoa_r+0x92c>
 2004680:	d9001617 	ldw	r4,88(sp)
 2004684:	980b883a 	mov	r5,r19
 2004688:	800d883a 	mov	r6,r16
 200468c:	2007ba80 	call	2007ba8 <__lshift>
 2004690:	1027883a 	mov	r19,r2
 2004694:	8804c03a 	cmpne	r2,r17,zero
 2004698:	1002541e 	bne	r2,zero,2004fec <_dtoa_r+0x1284>
 200469c:	980b883a 	mov	r5,r19
 20046a0:	dd800517 	ldw	r22,20(sp)
 20046a4:	dcc00615 	stw	r19,24(sp)
 20046a8:	a700004c 	andi	fp,r20,1
 20046ac:	2827883a 	mov	r19,r5
 20046b0:	d9000717 	ldw	r4,28(sp)
 20046b4:	900b883a 	mov	r5,r18
 20046b8:	2003b500 	call	2003b50 <quorem>
 20046bc:	d9000717 	ldw	r4,28(sp)
 20046c0:	d9400617 	ldw	r5,24(sp)
 20046c4:	1023883a 	mov	r17,r2
 20046c8:	8dc00c04 	addi	r23,r17,48
 20046cc:	20073c00 	call	20073c0 <__mcmp>
 20046d0:	d9001617 	ldw	r4,88(sp)
 20046d4:	900b883a 	mov	r5,r18
 20046d8:	980d883a 	mov	r6,r19
 20046dc:	1029883a 	mov	r20,r2
 20046e0:	2007a1c0 	call	2007a1c <__mdiff>
 20046e4:	102b883a 	mov	r21,r2
 20046e8:	10800317 	ldw	r2,12(r2)
 20046ec:	1001281e 	bne	r2,zero,2004b90 <_dtoa_r+0xe28>
 20046f0:	d9000717 	ldw	r4,28(sp)
 20046f4:	a80b883a 	mov	r5,r21
 20046f8:	20073c00 	call	20073c0 <__mcmp>
 20046fc:	d9001617 	ldw	r4,88(sp)
 2004700:	1021883a 	mov	r16,r2
 2004704:	a80b883a 	mov	r5,r21
 2004708:	20072640 	call	2007264 <_Bfree>
 200470c:	8000041e 	bne	r16,zero,2004720 <_dtoa_r+0x9b8>
 2004710:	d8801717 	ldw	r2,92(sp)
 2004714:	1000021e 	bne	r2,zero,2004720 <_dtoa_r+0x9b8>
 2004718:	e004c03a 	cmpne	r2,fp,zero
 200471c:	10011726 	beq	r2,zero,2004b7c <_dtoa_r+0xe14>
 2004720:	a0010616 	blt	r20,zero,2004b3c <_dtoa_r+0xdd4>
 2004724:	a000041e 	bne	r20,zero,2004738 <_dtoa_r+0x9d0>
 2004728:	d8c01717 	ldw	r3,92(sp)
 200472c:	1800021e 	bne	r3,zero,2004738 <_dtoa_r+0x9d0>
 2004730:	e004c03a 	cmpne	r2,fp,zero
 2004734:	10010126 	beq	r2,zero,2004b3c <_dtoa_r+0xdd4>
 2004738:	04023d16 	blt	zero,r16,2005030 <_dtoa_r+0x12c8>
 200473c:	b5c00005 	stb	r23,0(r22)
 2004740:	d9800517 	ldw	r6,20(sp)
 2004744:	d9000f17 	ldw	r4,60(sp)
 2004748:	b5800044 	addi	r22,r22,1
 200474c:	3105883a 	add	r2,r6,r4
 2004750:	b0806526 	beq	r22,r2,20048e8 <_dtoa_r+0xb80>
 2004754:	d9400717 	ldw	r5,28(sp)
 2004758:	d9001617 	ldw	r4,88(sp)
 200475c:	01800284 	movi	r6,10
 2004760:	000f883a 	mov	r7,zero
 2004764:	2007f180 	call	2007f18 <__multadd>
 2004768:	d8800715 	stw	r2,28(sp)
 200476c:	d8800617 	ldw	r2,24(sp)
 2004770:	14c10c26 	beq	r2,r19,2004ba4 <_dtoa_r+0xe3c>
 2004774:	d9400617 	ldw	r5,24(sp)
 2004778:	d9001617 	ldw	r4,88(sp)
 200477c:	01800284 	movi	r6,10
 2004780:	000f883a 	mov	r7,zero
 2004784:	2007f180 	call	2007f18 <__multadd>
 2004788:	d9001617 	ldw	r4,88(sp)
 200478c:	980b883a 	mov	r5,r19
 2004790:	01800284 	movi	r6,10
 2004794:	000f883a 	mov	r7,zero
 2004798:	d8800615 	stw	r2,24(sp)
 200479c:	2007f180 	call	2007f18 <__multadd>
 20047a0:	1027883a 	mov	r19,r2
 20047a4:	003fc206 	br	20046b0 <_dtoa_r+0x948>
 20047a8:	2445c83a 	sub	r2,r4,r17
 20047ac:	a088983a 	sll	r4,r20,r2
 20047b0:	003e4b06 	br	20040e0 <_dtoa_r+0x378>
 20047b4:	01bfffc4 	movi	r6,-1
 20047b8:	00800044 	movi	r2,1
 20047bc:	d9800e15 	stw	r6,56(sp)
 20047c0:	d9800f15 	stw	r6,60(sp)
 20047c4:	d8800b15 	stw	r2,44(sp)
 20047c8:	d8c01617 	ldw	r3,88(sp)
 20047cc:	008005c4 	movi	r2,23
 20047d0:	18001115 	stw	zero,68(r3)
 20047d4:	1580082e 	bgeu	r2,r22,20047f8 <_dtoa_r+0xa90>
 20047d8:	00c00104 	movi	r3,4
 20047dc:	0009883a 	mov	r4,zero
 20047e0:	18c7883a 	add	r3,r3,r3
 20047e4:	18800504 	addi	r2,r3,20
 20047e8:	21000044 	addi	r4,r4,1
 20047ec:	b0bffc2e 	bgeu	r22,r2,20047e0 <_dtoa_r+0xa78>
 20047f0:	d9801617 	ldw	r6,88(sp)
 20047f4:	31001115 	stw	r4,68(r6)
 20047f8:	dc000f17 	ldw	r16,60(sp)
 20047fc:	003e4b06 	br	200412c <_dtoa_r+0x3c4>
 2004800:	d9801717 	ldw	r6,92(sp)
 2004804:	0023883a 	mov	r17,zero
 2004808:	31bfff04 	addi	r6,r6,-4
 200480c:	d9801715 	stw	r6,92(sp)
 2004810:	003df806 	br	2003ff4 <_dtoa_r+0x28c>
 2004814:	00800804 	movi	r2,32
 2004818:	10c9c83a 	sub	r4,r2,r3
 200481c:	00c00104 	movi	r3,4
 2004820:	19005a16 	blt	r3,r4,200498c <_dtoa_r+0xc24>
 2004824:	008000c4 	movi	r2,3
 2004828:	113f7e16 	blt	r2,r4,2004624 <_dtoa_r+0x8bc>
 200482c:	20800704 	addi	r2,r4,28
 2004830:	003f7506 	br	2004608 <_dtoa_r+0x8a0>
 2004834:	d9801717 	ldw	r6,92(sp)
 2004838:	00800044 	movi	r2,1
 200483c:	1180a10e 	bge	r2,r6,2004ac4 <_dtoa_r+0xd5c>
 2004840:	d9800f17 	ldw	r6,60(sp)
 2004844:	d8c01017 	ldw	r3,64(sp)
 2004848:	30bfffc4 	addi	r2,r6,-1
 200484c:	1881c616 	blt	r3,r2,2004f68 <_dtoa_r+0x1200>
 2004850:	18a5c83a 	sub	r18,r3,r2
 2004854:	d8800f17 	ldw	r2,60(sp)
 2004858:	10026216 	blt	r2,zero,20051e4 <_dtoa_r+0x147c>
 200485c:	dc001117 	ldw	r16,68(sp)
 2004860:	1007883a 	mov	r3,r2
 2004864:	d9800a17 	ldw	r6,40(sp)
 2004868:	d8801117 	ldw	r2,68(sp)
 200486c:	d9001617 	ldw	r4,88(sp)
 2004870:	30cd883a 	add	r6,r6,r3
 2004874:	10c5883a 	add	r2,r2,r3
 2004878:	01400044 	movi	r5,1
 200487c:	d9800a15 	stw	r6,40(sp)
 2004880:	d8801115 	stw	r2,68(sp)
 2004884:	2007edc0 	call	2007edc <__i2b>
 2004888:	1027883a 	mov	r19,r2
 200488c:	003f2506 	br	2004524 <_dtoa_r+0x7bc>
 2004890:	00c08074 	movhi	r3,513
 2004894:	18c57604 	addi	r3,r3,5592
 2004898:	003d6706 	br	2003e38 <_dtoa_r+0xd0>
 200489c:	dd800517 	ldw	r22,20(sp)
 20048a0:	04000044 	movi	r16,1
 20048a4:	00000706 	br	20048c4 <_dtoa_r+0xb5c>
 20048a8:	d9400717 	ldw	r5,28(sp)
 20048ac:	d9001617 	ldw	r4,88(sp)
 20048b0:	01800284 	movi	r6,10
 20048b4:	000f883a 	mov	r7,zero
 20048b8:	2007f180 	call	2007f18 <__multadd>
 20048bc:	d8800715 	stw	r2,28(sp)
 20048c0:	84000044 	addi	r16,r16,1
 20048c4:	d9000717 	ldw	r4,28(sp)
 20048c8:	900b883a 	mov	r5,r18
 20048cc:	2003b500 	call	2003b50 <quorem>
 20048d0:	15c00c04 	addi	r23,r2,48
 20048d4:	b5c00005 	stb	r23,0(r22)
 20048d8:	d8c00f17 	ldw	r3,60(sp)
 20048dc:	b5800044 	addi	r22,r22,1
 20048e0:	80fff116 	blt	r16,r3,20048a8 <_dtoa_r+0xb40>
 20048e4:	d8000615 	stw	zero,24(sp)
 20048e8:	d9400717 	ldw	r5,28(sp)
 20048ec:	d9001617 	ldw	r4,88(sp)
 20048f0:	01800044 	movi	r6,1
 20048f4:	2007ba80 	call	2007ba8 <__lshift>
 20048f8:	1009883a 	mov	r4,r2
 20048fc:	900b883a 	mov	r5,r18
 2004900:	d8800715 	stw	r2,28(sp)
 2004904:	20073c00 	call	20073c0 <__mcmp>
 2004908:	00803c0e 	bge	zero,r2,20049fc <_dtoa_r+0xc94>
 200490c:	b009883a 	mov	r4,r22
 2004910:	213fffc4 	addi	r4,r4,-1
 2004914:	21400003 	ldbu	r5,0(r4)
 2004918:	00800e44 	movi	r2,57
 200491c:	28c03fcc 	andi	r3,r5,255
 2004920:	18c0201c 	xori	r3,r3,128
 2004924:	18ffe004 	addi	r3,r3,-128
 2004928:	1881981e 	bne	r3,r2,2004f8c <_dtoa_r+0x1224>
 200492c:	d9800517 	ldw	r6,20(sp)
 2004930:	21bff71e 	bne	r4,r6,2004910 <_dtoa_r+0xba8>
 2004934:	d8800d17 	ldw	r2,52(sp)
 2004938:	37000044 	addi	fp,r6,1
 200493c:	10800044 	addi	r2,r2,1
 2004940:	d8800d15 	stw	r2,52(sp)
 2004944:	00800c44 	movi	r2,49
 2004948:	30800005 	stb	r2,0(r6)
 200494c:	d9001617 	ldw	r4,88(sp)
 2004950:	900b883a 	mov	r5,r18
 2004954:	20072640 	call	2007264 <_Bfree>
 2004958:	983ecd26 	beq	r19,zero,2004490 <_dtoa_r+0x728>
 200495c:	d8c00617 	ldw	r3,24(sp)
 2004960:	18000426 	beq	r3,zero,2004974 <_dtoa_r+0xc0c>
 2004964:	1cc00326 	beq	r3,r19,2004974 <_dtoa_r+0xc0c>
 2004968:	d9001617 	ldw	r4,88(sp)
 200496c:	180b883a 	mov	r5,r3
 2004970:	20072640 	call	2007264 <_Bfree>
 2004974:	d9001617 	ldw	r4,88(sp)
 2004978:	980b883a 	mov	r5,r19
 200497c:	20072640 	call	2007264 <_Bfree>
 2004980:	003ec306 	br	2004490 <_dtoa_r+0x728>
 2004984:	1805883a 	mov	r2,r3
 2004988:	003eeb06 	br	2004538 <_dtoa_r+0x7d0>
 200498c:	d9800a17 	ldw	r6,40(sp)
 2004990:	d8c01117 	ldw	r3,68(sp)
 2004994:	20bfff04 	addi	r2,r4,-4
 2004998:	308d883a 	add	r6,r6,r2
 200499c:	1887883a 	add	r3,r3,r2
 20049a0:	80a1883a 	add	r16,r16,r2
 20049a4:	d9800a15 	stw	r6,40(sp)
 20049a8:	d8c01115 	stw	r3,68(sp)
 20049ac:	003f1d06 	br	2004624 <_dtoa_r+0x8bc>
 20049b0:	a03f0c1e 	bne	r20,zero,20045e4 <_dtoa_r+0x87c>
 20049b4:	00800434 	movhi	r2,16
 20049b8:	10bfffc4 	addi	r2,r2,-1
 20049bc:	a884703a 	and	r2,r21,r2
 20049c0:	103f081e 	bne	r2,zero,20045e4 <_dtoa_r+0x87c>
 20049c4:	a89ffc2c 	andhi	r2,r21,32752
 20049c8:	103f0626 	beq	r2,zero,20045e4 <_dtoa_r+0x87c>
 20049cc:	d8c01117 	ldw	r3,68(sp)
 20049d0:	d9000a17 	ldw	r4,40(sp)
 20049d4:	18c00044 	addi	r3,r3,1
 20049d8:	21000044 	addi	r4,r4,1
 20049dc:	d8c01115 	stw	r3,68(sp)
 20049e0:	d9000a15 	stw	r4,40(sp)
 20049e4:	003f0006 	br	20045e8 <_dtoa_r+0x880>
 20049e8:	d9400717 	ldw	r5,28(sp)
 20049ec:	d9001617 	ldw	r4,88(sp)
 20049f0:	20080180 	call	2008018 <__pow5mult>
 20049f4:	d8800715 	stw	r2,28(sp)
 20049f8:	003eed06 	br	20045b0 <_dtoa_r+0x848>
 20049fc:	1000021e 	bne	r2,zero,2004a08 <_dtoa_r+0xca0>
 2004a00:	b880004c 	andi	r2,r23,1
 2004a04:	103fc11e 	bne	r2,zero,200490c <_dtoa_r+0xba4>
 2004a08:	b5bfffc4 	addi	r22,r22,-1
 2004a0c:	b0c00007 	ldb	r3,0(r22)
 2004a10:	00800c04 	movi	r2,48
 2004a14:	18bffc26 	beq	r3,r2,2004a08 <_dtoa_r+0xca0>
 2004a18:	b7000044 	addi	fp,r22,1
 2004a1c:	003fcb06 	br	200494c <_dtoa_r+0xbe4>
 2004a20:	d9800d17 	ldw	r6,52(sp)
 2004a24:	018fc83a 	sub	r7,zero,r6
 2004a28:	3801f726 	beq	r7,zero,2005208 <_dtoa_r+0x14a0>
 2004a2c:	398003cc 	andi	r6,r7,15
 2004a30:	300c90fa 	slli	r6,r6,3
 2004a34:	01408074 	movhi	r5,513
 2004a38:	29463f04 	addi	r5,r5,6396
 2004a3c:	d9001217 	ldw	r4,72(sp)
 2004a40:	314d883a 	add	r6,r6,r5
 2004a44:	30c00117 	ldw	r3,4(r6)
 2004a48:	30800017 	ldw	r2,0(r6)
 2004a4c:	d9401317 	ldw	r5,76(sp)
 2004a50:	3821d13a 	srai	r16,r7,4
 2004a54:	100d883a 	mov	r6,r2
 2004a58:	180f883a 	mov	r7,r3
 2004a5c:	200d6380 	call	200d638 <__muldf3>
 2004a60:	1011883a 	mov	r8,r2
 2004a64:	1813883a 	mov	r9,r3
 2004a68:	1029883a 	mov	r20,r2
 2004a6c:	182b883a 	mov	r21,r3
 2004a70:	8001e526 	beq	r16,zero,2005208 <_dtoa_r+0x14a0>
 2004a74:	05800084 	movi	r22,2
 2004a78:	04408074 	movhi	r17,513
 2004a7c:	8c467104 	addi	r17,r17,6596
 2004a80:	8080004c 	andi	r2,r16,1
 2004a84:	1005003a 	cmpeq	r2,r2,zero
 2004a88:	1000081e 	bne	r2,zero,2004aac <_dtoa_r+0xd44>
 2004a8c:	89800017 	ldw	r6,0(r17)
 2004a90:	89c00117 	ldw	r7,4(r17)
 2004a94:	480b883a 	mov	r5,r9
 2004a98:	4009883a 	mov	r4,r8
 2004a9c:	200d6380 	call	200d638 <__muldf3>
 2004aa0:	1011883a 	mov	r8,r2
 2004aa4:	b5800044 	addi	r22,r22,1
 2004aa8:	1813883a 	mov	r9,r3
 2004aac:	8021d07a 	srai	r16,r16,1
 2004ab0:	8c400204 	addi	r17,r17,8
 2004ab4:	803ff21e 	bne	r16,zero,2004a80 <_dtoa_r+0xd18>
 2004ab8:	4029883a 	mov	r20,r8
 2004abc:	482b883a 	mov	r21,r9
 2004ac0:	003dca06 	br	20041ec <_dtoa_r+0x484>
 2004ac4:	d9000817 	ldw	r4,32(sp)
 2004ac8:	2005003a 	cmpeq	r2,r4,zero
 2004acc:	1001f61e 	bne	r2,zero,20052a8 <_dtoa_r+0x1540>
 2004ad0:	dc001117 	ldw	r16,68(sp)
 2004ad4:	dc801017 	ldw	r18,64(sp)
 2004ad8:	18c10cc4 	addi	r3,r3,1075
 2004adc:	003f6106 	br	2004864 <_dtoa_r+0xafc>
 2004ae0:	d8000b15 	stw	zero,44(sp)
 2004ae4:	d9802617 	ldw	r6,152(sp)
 2004ae8:	d8c00d17 	ldw	r3,52(sp)
 2004aec:	30800044 	addi	r2,r6,1
 2004af0:	18ad883a 	add	r22,r3,r2
 2004af4:	b13fffc4 	addi	r4,r22,-1
 2004af8:	d9000e15 	stw	r4,56(sp)
 2004afc:	0581f60e 	bge	zero,r22,20052d8 <_dtoa_r+0x1570>
 2004b00:	dd800f15 	stw	r22,60(sp)
 2004b04:	003f3006 	br	20047c8 <_dtoa_r+0xa60>
 2004b08:	d8000b15 	stw	zero,44(sp)
 2004b0c:	d9002617 	ldw	r4,152(sp)
 2004b10:	0101eb0e 	bge	zero,r4,20052c0 <_dtoa_r+0x1558>
 2004b14:	202d883a 	mov	r22,r4
 2004b18:	d9000e15 	stw	r4,56(sp)
 2004b1c:	d9000f15 	stw	r4,60(sp)
 2004b20:	003f2906 	br	20047c8 <_dtoa_r+0xa60>
 2004b24:	01800044 	movi	r6,1
 2004b28:	d9800b15 	stw	r6,44(sp)
 2004b2c:	003ff706 	br	2004b0c <_dtoa_r+0xda4>
 2004b30:	01000044 	movi	r4,1
 2004b34:	d9000b15 	stw	r4,44(sp)
 2004b38:	003fea06 	br	2004ae4 <_dtoa_r+0xd7c>
 2004b3c:	04000c0e 	bge	zero,r16,2004b70 <_dtoa_r+0xe08>
 2004b40:	d9400717 	ldw	r5,28(sp)
 2004b44:	d9001617 	ldw	r4,88(sp)
 2004b48:	01800044 	movi	r6,1
 2004b4c:	2007ba80 	call	2007ba8 <__lshift>
 2004b50:	1009883a 	mov	r4,r2
 2004b54:	900b883a 	mov	r5,r18
 2004b58:	d8800715 	stw	r2,28(sp)
 2004b5c:	20073c00 	call	20073c0 <__mcmp>
 2004b60:	0081e00e 	bge	zero,r2,20052e4 <_dtoa_r+0x157c>
 2004b64:	bdc00044 	addi	r23,r23,1
 2004b68:	00800e84 	movi	r2,58
 2004b6c:	b881a226 	beq	r23,r2,20051f8 <_dtoa_r+0x1490>
 2004b70:	b7000044 	addi	fp,r22,1
 2004b74:	b5c00005 	stb	r23,0(r22)
 2004b78:	003f7406 	br	200494c <_dtoa_r+0xbe4>
 2004b7c:	00800e44 	movi	r2,57
 2004b80:	b8819d26 	beq	r23,r2,20051f8 <_dtoa_r+0x1490>
 2004b84:	053ffa0e 	bge	zero,r20,2004b70 <_dtoa_r+0xe08>
 2004b88:	8dc00c44 	addi	r23,r17,49
 2004b8c:	003ff806 	br	2004b70 <_dtoa_r+0xe08>
 2004b90:	d9001617 	ldw	r4,88(sp)
 2004b94:	a80b883a 	mov	r5,r21
 2004b98:	04000044 	movi	r16,1
 2004b9c:	20072640 	call	2007264 <_Bfree>
 2004ba0:	003edf06 	br	2004720 <_dtoa_r+0x9b8>
 2004ba4:	d9001617 	ldw	r4,88(sp)
 2004ba8:	980b883a 	mov	r5,r19
 2004bac:	01800284 	movi	r6,10
 2004bb0:	000f883a 	mov	r7,zero
 2004bb4:	2007f180 	call	2007f18 <__multadd>
 2004bb8:	1027883a 	mov	r19,r2
 2004bbc:	d8800615 	stw	r2,24(sp)
 2004bc0:	003ebb06 	br	20046b0 <_dtoa_r+0x948>
 2004bc4:	d9801117 	ldw	r6,68(sp)
 2004bc8:	d8800d17 	ldw	r2,52(sp)
 2004bcc:	d8000915 	stw	zero,36(sp)
 2004bd0:	308dc83a 	sub	r6,r6,r2
 2004bd4:	0087c83a 	sub	r3,zero,r2
 2004bd8:	d9801115 	stw	r6,68(sp)
 2004bdc:	d8c01015 	stw	r3,64(sp)
 2004be0:	003cfe06 	br	2003fdc <_dtoa_r+0x274>
 2004be4:	018dc83a 	sub	r6,zero,r6
 2004be8:	d9801115 	stw	r6,68(sp)
 2004bec:	d8000a15 	stw	zero,40(sp)
 2004bf0:	003cf306 	br	2003fc0 <_dtoa_r+0x258>
 2004bf4:	d9000d17 	ldw	r4,52(sp)
 2004bf8:	200df840 	call	200df84 <__floatsidf>
 2004bfc:	880b883a 	mov	r5,r17
 2004c00:	8009883a 	mov	r4,r16
 2004c04:	180f883a 	mov	r7,r3
 2004c08:	100d883a 	mov	r6,r2
 2004c0c:	200dcdc0 	call	200dcdc <__nedf2>
 2004c10:	103ce126 	beq	r2,zero,2003f98 <_dtoa_r+0x230>
 2004c14:	d9800d17 	ldw	r6,52(sp)
 2004c18:	31bfffc4 	addi	r6,r6,-1
 2004c1c:	d9800d15 	stw	r6,52(sp)
 2004c20:	003cdd06 	br	2003f98 <_dtoa_r+0x230>
 2004c24:	d9000717 	ldw	r4,28(sp)
 2004c28:	900b883a 	mov	r5,r18
 2004c2c:	20073c00 	call	20073c0 <__mcmp>
 2004c30:	103e8d0e 	bge	r2,zero,2004668 <_dtoa_r+0x900>
 2004c34:	d9400717 	ldw	r5,28(sp)
 2004c38:	d9001617 	ldw	r4,88(sp)
 2004c3c:	01800284 	movi	r6,10
 2004c40:	000f883a 	mov	r7,zero
 2004c44:	2007f180 	call	2007f18 <__multadd>
 2004c48:	d9800d17 	ldw	r6,52(sp)
 2004c4c:	d8800715 	stw	r2,28(sp)
 2004c50:	31bfffc4 	addi	r6,r6,-1
 2004c54:	d9800d15 	stw	r6,52(sp)
 2004c58:	b001a71e 	bne	r22,zero,20052f8 <_dtoa_r+0x1590>
 2004c5c:	d8800e17 	ldw	r2,56(sp)
 2004c60:	d8800f15 	stw	r2,60(sp)
 2004c64:	003e8006 	br	2004668 <_dtoa_r+0x900>
 2004c68:	90800417 	ldw	r2,16(r18)
 2004c6c:	1085883a 	add	r2,r2,r2
 2004c70:	1085883a 	add	r2,r2,r2
 2004c74:	1485883a 	add	r2,r2,r18
 2004c78:	11000417 	ldw	r4,16(r2)
 2004c7c:	200728c0 	call	200728c <__hi0bits>
 2004c80:	00c00804 	movi	r3,32
 2004c84:	1887c83a 	sub	r3,r3,r2
 2004c88:	003e5a06 	br	20045f4 <_dtoa_r+0x88c>
 2004c8c:	d9400717 	ldw	r5,28(sp)
 2004c90:	d9801017 	ldw	r6,64(sp)
 2004c94:	d9001617 	ldw	r4,88(sp)
 2004c98:	20080180 	call	2008018 <__pow5mult>
 2004c9c:	d8800715 	stw	r2,28(sp)
 2004ca0:	003e4306 	br	20045b0 <_dtoa_r+0x848>
 2004ca4:	d9800f17 	ldw	r6,60(sp)
 2004ca8:	d8800d17 	ldw	r2,52(sp)
 2004cac:	d9800315 	stw	r6,12(sp)
 2004cb0:	d8800415 	stw	r2,16(sp)
 2004cb4:	d8c00b17 	ldw	r3,44(sp)
 2004cb8:	1805003a 	cmpeq	r2,r3,zero
 2004cbc:	1000e21e 	bne	r2,zero,2005048 <_dtoa_r+0x12e0>
 2004cc0:	d9000317 	ldw	r4,12(sp)
 2004cc4:	0005883a 	mov	r2,zero
 2004cc8:	00cff834 	movhi	r3,16352
 2004ccc:	200c90fa 	slli	r6,r4,3
 2004cd0:	01008074 	movhi	r4,513
 2004cd4:	21063f04 	addi	r4,r4,6396
 2004cd8:	180b883a 	mov	r5,r3
 2004cdc:	310d883a 	add	r6,r6,r4
 2004ce0:	327fff17 	ldw	r9,-4(r6)
 2004ce4:	323ffe17 	ldw	r8,-8(r6)
 2004ce8:	1009883a 	mov	r4,r2
 2004cec:	480f883a 	mov	r7,r9
 2004cf0:	400d883a 	mov	r6,r8
 2004cf4:	200d9fc0 	call	200d9fc <__divdf3>
 2004cf8:	180b883a 	mov	r5,r3
 2004cfc:	b00d883a 	mov	r6,r22
 2004d00:	b80f883a 	mov	r7,r23
 2004d04:	1009883a 	mov	r4,r2
 2004d08:	200d5440 	call	200d544 <__subdf3>
 2004d0c:	a80b883a 	mov	r5,r21
 2004d10:	a009883a 	mov	r4,r20
 2004d14:	d8c01915 	stw	r3,100(sp)
 2004d18:	d8801815 	stw	r2,96(sp)
 2004d1c:	200e07c0 	call	200e07c <__fixdfsi>
 2004d20:	1009883a 	mov	r4,r2
 2004d24:	1027883a 	mov	r19,r2
 2004d28:	200df840 	call	200df84 <__floatsidf>
 2004d2c:	a80b883a 	mov	r5,r21
 2004d30:	a009883a 	mov	r4,r20
 2004d34:	180f883a 	mov	r7,r3
 2004d38:	100d883a 	mov	r6,r2
 2004d3c:	200d5440 	call	200d544 <__subdf3>
 2004d40:	d9801817 	ldw	r6,96(sp)
 2004d44:	1823883a 	mov	r17,r3
 2004d48:	d8801415 	stw	r2,80(sp)
 2004d4c:	302d883a 	mov	r22,r6
 2004d50:	d9800517 	ldw	r6,20(sp)
 2004d54:	9cc00c04 	addi	r19,r19,48
 2004d58:	dc401515 	stw	r17,84(sp)
 2004d5c:	d8c01917 	ldw	r3,100(sp)
 2004d60:	34c00005 	stb	r19,0(r6)
 2004d64:	d8800517 	ldw	r2,20(sp)
 2004d68:	d9401917 	ldw	r5,100(sp)
 2004d6c:	d9801417 	ldw	r6,80(sp)
 2004d70:	b009883a 	mov	r4,r22
 2004d74:	880f883a 	mov	r7,r17
 2004d78:	182f883a 	mov	r23,r3
 2004d7c:	17000044 	addi	fp,r2,1
 2004d80:	200dd640 	call	200dd64 <__gtdf2>
 2004d84:	00804e16 	blt	zero,r2,2004ec0 <_dtoa_r+0x1158>
 2004d88:	d9801417 	ldw	r6,80(sp)
 2004d8c:	0005883a 	mov	r2,zero
 2004d90:	00cffc34 	movhi	r3,16368
 2004d94:	180b883a 	mov	r5,r3
 2004d98:	880f883a 	mov	r7,r17
 2004d9c:	1009883a 	mov	r4,r2
 2004da0:	200d5440 	call	200d544 <__subdf3>
 2004da4:	d9401917 	ldw	r5,100(sp)
 2004da8:	180f883a 	mov	r7,r3
 2004dac:	b009883a 	mov	r4,r22
 2004db0:	100d883a 	mov	r6,r2
 2004db4:	200dd640 	call	200dd64 <__gtdf2>
 2004db8:	00bda216 	blt	zero,r2,2004444 <_dtoa_r+0x6dc>
 2004dbc:	d8c00317 	ldw	r3,12(sp)
 2004dc0:	00800044 	movi	r2,1
 2004dc4:	10c01216 	blt	r2,r3,2004e10 <_dtoa_r+0x10a8>
 2004dc8:	003d4506 	br	20042e0 <_dtoa_r+0x578>
 2004dcc:	d9801417 	ldw	r6,80(sp)
 2004dd0:	0005883a 	mov	r2,zero
 2004dd4:	00cffc34 	movhi	r3,16368
 2004dd8:	180b883a 	mov	r5,r3
 2004ddc:	880f883a 	mov	r7,r17
 2004de0:	1009883a 	mov	r4,r2
 2004de4:	200d5440 	call	200d544 <__subdf3>
 2004de8:	d9c01b17 	ldw	r7,108(sp)
 2004dec:	180b883a 	mov	r5,r3
 2004df0:	1009883a 	mov	r4,r2
 2004df4:	b00d883a 	mov	r6,r22
 2004df8:	200de740 	call	200de74 <__ltdf2>
 2004dfc:	103d9116 	blt	r2,zero,2004444 <_dtoa_r+0x6dc>
 2004e00:	d9800517 	ldw	r6,20(sp)
 2004e04:	d9000317 	ldw	r4,12(sp)
 2004e08:	3105883a 	add	r2,r6,r4
 2004e0c:	e0bd3426 	beq	fp,r2,20042e0 <_dtoa_r+0x578>
 2004e10:	04500934 	movhi	r17,16420
 2004e14:	0021883a 	mov	r16,zero
 2004e18:	b80b883a 	mov	r5,r23
 2004e1c:	b009883a 	mov	r4,r22
 2004e20:	800d883a 	mov	r6,r16
 2004e24:	880f883a 	mov	r7,r17
 2004e28:	200d6380 	call	200d638 <__muldf3>
 2004e2c:	d9401517 	ldw	r5,84(sp)
 2004e30:	d9001417 	ldw	r4,80(sp)
 2004e34:	880f883a 	mov	r7,r17
 2004e38:	000d883a 	mov	r6,zero
 2004e3c:	d8801a15 	stw	r2,104(sp)
 2004e40:	d8c01b15 	stw	r3,108(sp)
 2004e44:	200d6380 	call	200d638 <__muldf3>
 2004e48:	180b883a 	mov	r5,r3
 2004e4c:	1009883a 	mov	r4,r2
 2004e50:	1823883a 	mov	r17,r3
 2004e54:	1021883a 	mov	r16,r2
 2004e58:	200e07c0 	call	200e07c <__fixdfsi>
 2004e5c:	1009883a 	mov	r4,r2
 2004e60:	102b883a 	mov	r21,r2
 2004e64:	200df840 	call	200df84 <__floatsidf>
 2004e68:	880b883a 	mov	r5,r17
 2004e6c:	8009883a 	mov	r4,r16
 2004e70:	180f883a 	mov	r7,r3
 2004e74:	100d883a 	mov	r6,r2
 2004e78:	200d5440 	call	200d544 <__subdf3>
 2004e7c:	1021883a 	mov	r16,r2
 2004e80:	d9001b17 	ldw	r4,108(sp)
 2004e84:	1823883a 	mov	r17,r3
 2004e88:	dc001415 	stw	r16,80(sp)
 2004e8c:	ad400c04 	addi	r21,r21,48
 2004e90:	dc401515 	stw	r17,84(sp)
 2004e94:	d8801a17 	ldw	r2,104(sp)
 2004e98:	e5400005 	stb	r21,0(fp)
 2004e9c:	202f883a 	mov	r23,r4
 2004ea0:	d9c01b17 	ldw	r7,108(sp)
 2004ea4:	d9001417 	ldw	r4,80(sp)
 2004ea8:	880b883a 	mov	r5,r17
 2004eac:	100d883a 	mov	r6,r2
 2004eb0:	102d883a 	mov	r22,r2
 2004eb4:	e7000044 	addi	fp,fp,1
 2004eb8:	200de740 	call	200de74 <__ltdf2>
 2004ebc:	103fc30e 	bge	r2,zero,2004dcc <_dtoa_r+0x1064>
 2004ec0:	d9000417 	ldw	r4,16(sp)
 2004ec4:	d9000d15 	stw	r4,52(sp)
 2004ec8:	003d7106 	br	2004490 <_dtoa_r+0x728>
 2004ecc:	d9801717 	ldw	r6,92(sp)
 2004ed0:	00800084 	movi	r2,2
 2004ed4:	11bde60e 	bge	r2,r6,2004670 <_dtoa_r+0x908>
 2004ed8:	203cfb1e 	bne	r4,zero,20042c8 <_dtoa_r+0x560>
 2004edc:	d9001617 	ldw	r4,88(sp)
 2004ee0:	900b883a 	mov	r5,r18
 2004ee4:	01800144 	movi	r6,5
 2004ee8:	000f883a 	mov	r7,zero
 2004eec:	2007f180 	call	2007f18 <__multadd>
 2004ef0:	d9000717 	ldw	r4,28(sp)
 2004ef4:	100b883a 	mov	r5,r2
 2004ef8:	1025883a 	mov	r18,r2
 2004efc:	20073c00 	call	20073c0 <__mcmp>
 2004f00:	00bcf10e 	bge	zero,r2,20042c8 <_dtoa_r+0x560>
 2004f04:	d8c00d17 	ldw	r3,52(sp)
 2004f08:	d9000517 	ldw	r4,20(sp)
 2004f0c:	d8000615 	stw	zero,24(sp)
 2004f10:	18c00044 	addi	r3,r3,1
 2004f14:	d8c00d15 	stw	r3,52(sp)
 2004f18:	00800c44 	movi	r2,49
 2004f1c:	27000044 	addi	fp,r4,1
 2004f20:	20800005 	stb	r2,0(r4)
 2004f24:	003e8906 	br	200494c <_dtoa_r+0xbe4>
 2004f28:	d8c00517 	ldw	r3,20(sp)
 2004f2c:	003bc206 	br	2003e38 <_dtoa_r+0xd0>
 2004f30:	01808074 	movhi	r6,513
 2004f34:	31867104 	addi	r6,r6,6596
 2004f38:	30c00917 	ldw	r3,36(r6)
 2004f3c:	30800817 	ldw	r2,32(r6)
 2004f40:	d9001217 	ldw	r4,72(sp)
 2004f44:	d9401317 	ldw	r5,76(sp)
 2004f48:	180f883a 	mov	r7,r3
 2004f4c:	100d883a 	mov	r6,r2
 2004f50:	200d9fc0 	call	200d9fc <__divdf3>
 2004f54:	948003cc 	andi	r18,r18,15
 2004f58:	058000c4 	movi	r22,3
 2004f5c:	1029883a 	mov	r20,r2
 2004f60:	182b883a 	mov	r21,r3
 2004f64:	003c8906 	br	200418c <_dtoa_r+0x424>
 2004f68:	d9001017 	ldw	r4,64(sp)
 2004f6c:	d9800917 	ldw	r6,36(sp)
 2004f70:	0025883a 	mov	r18,zero
 2004f74:	1105c83a 	sub	r2,r2,r4
 2004f78:	2089883a 	add	r4,r4,r2
 2004f7c:	308d883a 	add	r6,r6,r2
 2004f80:	d9001015 	stw	r4,64(sp)
 2004f84:	d9800915 	stw	r6,36(sp)
 2004f88:	003e3206 	br	2004854 <_dtoa_r+0xaec>
 2004f8c:	28800044 	addi	r2,r5,1
 2004f90:	27000044 	addi	fp,r4,1
 2004f94:	20800005 	stb	r2,0(r4)
 2004f98:	003e6c06 	br	200494c <_dtoa_r+0xbe4>
 2004f9c:	d8800f17 	ldw	r2,60(sp)
 2004fa0:	00bce016 	blt	zero,r2,2004324 <_dtoa_r+0x5bc>
 2004fa4:	d9800f17 	ldw	r6,60(sp)
 2004fa8:	303cc51e 	bne	r6,zero,20042c0 <_dtoa_r+0x558>
 2004fac:	0005883a 	mov	r2,zero
 2004fb0:	00d00534 	movhi	r3,16404
 2004fb4:	980b883a 	mov	r5,r19
 2004fb8:	180f883a 	mov	r7,r3
 2004fbc:	9009883a 	mov	r4,r18
 2004fc0:	100d883a 	mov	r6,r2
 2004fc4:	200d6380 	call	200d638 <__muldf3>
 2004fc8:	180b883a 	mov	r5,r3
 2004fcc:	a80f883a 	mov	r7,r21
 2004fd0:	1009883a 	mov	r4,r2
 2004fd4:	a00d883a 	mov	r6,r20
 2004fd8:	200ddec0 	call	200ddec <__gedf2>
 2004fdc:	103cb80e 	bge	r2,zero,20042c0 <_dtoa_r+0x558>
 2004fe0:	0027883a 	mov	r19,zero
 2004fe4:	0025883a 	mov	r18,zero
 2004fe8:	003fc606 	br	2004f04 <_dtoa_r+0x119c>
 2004fec:	99400117 	ldw	r5,4(r19)
 2004ff0:	d9001617 	ldw	r4,88(sp)
 2004ff4:	20077e40 	call	20077e4 <_Balloc>
 2004ff8:	99800417 	ldw	r6,16(r19)
 2004ffc:	11000304 	addi	r4,r2,12
 2005000:	99400304 	addi	r5,r19,12
 2005004:	318d883a 	add	r6,r6,r6
 2005008:	318d883a 	add	r6,r6,r6
 200500c:	31800204 	addi	r6,r6,8
 2005010:	1023883a 	mov	r17,r2
 2005014:	200704c0 	call	200704c <memcpy>
 2005018:	d9001617 	ldw	r4,88(sp)
 200501c:	880b883a 	mov	r5,r17
 2005020:	01800044 	movi	r6,1
 2005024:	2007ba80 	call	2007ba8 <__lshift>
 2005028:	100b883a 	mov	r5,r2
 200502c:	003d9c06 	br	20046a0 <_dtoa_r+0x938>
 2005030:	00800e44 	movi	r2,57
 2005034:	b8807026 	beq	r23,r2,20051f8 <_dtoa_r+0x1490>
 2005038:	b8800044 	addi	r2,r23,1
 200503c:	b7000044 	addi	fp,r22,1
 2005040:	b0800005 	stb	r2,0(r22)
 2005044:	003e4106 	br	200494c <_dtoa_r+0xbe4>
 2005048:	d8800317 	ldw	r2,12(sp)
 200504c:	01808074 	movhi	r6,513
 2005050:	31863f04 	addi	r6,r6,6396
 2005054:	b009883a 	mov	r4,r22
 2005058:	100e90fa 	slli	r7,r2,3
 200505c:	b80b883a 	mov	r5,r23
 2005060:	398f883a 	add	r7,r7,r6
 2005064:	38bffe17 	ldw	r2,-8(r7)
 2005068:	d9800517 	ldw	r6,20(sp)
 200506c:	38ffff17 	ldw	r3,-4(r7)
 2005070:	37000044 	addi	fp,r6,1
 2005074:	180f883a 	mov	r7,r3
 2005078:	100d883a 	mov	r6,r2
 200507c:	200d6380 	call	200d638 <__muldf3>
 2005080:	a80b883a 	mov	r5,r21
 2005084:	a009883a 	mov	r4,r20
 2005088:	182f883a 	mov	r23,r3
 200508c:	102d883a 	mov	r22,r2
 2005090:	200e07c0 	call	200e07c <__fixdfsi>
 2005094:	1009883a 	mov	r4,r2
 2005098:	1027883a 	mov	r19,r2
 200509c:	200df840 	call	200df84 <__floatsidf>
 20050a0:	a80b883a 	mov	r5,r21
 20050a4:	a009883a 	mov	r4,r20
 20050a8:	180f883a 	mov	r7,r3
 20050ac:	100d883a 	mov	r6,r2
 20050b0:	200d5440 	call	200d544 <__subdf3>
 20050b4:	180b883a 	mov	r5,r3
 20050b8:	d8c00517 	ldw	r3,20(sp)
 20050bc:	9cc00c04 	addi	r19,r19,48
 20050c0:	1009883a 	mov	r4,r2
 20050c4:	1cc00005 	stb	r19,0(r3)
 20050c8:	2021883a 	mov	r16,r4
 20050cc:	d9000317 	ldw	r4,12(sp)
 20050d0:	00800044 	movi	r2,1
 20050d4:	2823883a 	mov	r17,r5
 20050d8:	20802226 	beq	r4,r2,2005164 <_dtoa_r+0x13fc>
 20050dc:	1029883a 	mov	r20,r2
 20050e0:	0005883a 	mov	r2,zero
 20050e4:	00d00934 	movhi	r3,16420
 20050e8:	180f883a 	mov	r7,r3
 20050ec:	100d883a 	mov	r6,r2
 20050f0:	880b883a 	mov	r5,r17
 20050f4:	8009883a 	mov	r4,r16
 20050f8:	200d6380 	call	200d638 <__muldf3>
 20050fc:	180b883a 	mov	r5,r3
 2005100:	1009883a 	mov	r4,r2
 2005104:	1823883a 	mov	r17,r3
 2005108:	1021883a 	mov	r16,r2
 200510c:	200e07c0 	call	200e07c <__fixdfsi>
 2005110:	1009883a 	mov	r4,r2
 2005114:	102b883a 	mov	r21,r2
 2005118:	200df840 	call	200df84 <__floatsidf>
 200511c:	880b883a 	mov	r5,r17
 2005120:	8009883a 	mov	r4,r16
 2005124:	180f883a 	mov	r7,r3
 2005128:	100d883a 	mov	r6,r2
 200512c:	200d5440 	call	200d544 <__subdf3>
 2005130:	180b883a 	mov	r5,r3
 2005134:	d8c00517 	ldw	r3,20(sp)
 2005138:	1009883a 	mov	r4,r2
 200513c:	ad400c04 	addi	r21,r21,48
 2005140:	1d05883a 	add	r2,r3,r20
 2005144:	15400005 	stb	r21,0(r2)
 2005148:	2021883a 	mov	r16,r4
 200514c:	d9000317 	ldw	r4,12(sp)
 2005150:	a5000044 	addi	r20,r20,1
 2005154:	2823883a 	mov	r17,r5
 2005158:	a13fe11e 	bne	r20,r4,20050e0 <_dtoa_r+0x1378>
 200515c:	e505883a 	add	r2,fp,r20
 2005160:	173fffc4 	addi	fp,r2,-1
 2005164:	0025883a 	mov	r18,zero
 2005168:	04cff834 	movhi	r19,16352
 200516c:	b009883a 	mov	r4,r22
 2005170:	b80b883a 	mov	r5,r23
 2005174:	900d883a 	mov	r6,r18
 2005178:	980f883a 	mov	r7,r19
 200517c:	200d5c40 	call	200d5c4 <__adddf3>
 2005180:	180b883a 	mov	r5,r3
 2005184:	1009883a 	mov	r4,r2
 2005188:	800d883a 	mov	r6,r16
 200518c:	880f883a 	mov	r7,r17
 2005190:	200de740 	call	200de74 <__ltdf2>
 2005194:	103cab16 	blt	r2,zero,2004444 <_dtoa_r+0x6dc>
 2005198:	0009883a 	mov	r4,zero
 200519c:	980b883a 	mov	r5,r19
 20051a0:	b80f883a 	mov	r7,r23
 20051a4:	b00d883a 	mov	r6,r22
 20051a8:	200d5440 	call	200d544 <__subdf3>
 20051ac:	180b883a 	mov	r5,r3
 20051b0:	880f883a 	mov	r7,r17
 20051b4:	1009883a 	mov	r4,r2
 20051b8:	800d883a 	mov	r6,r16
 20051bc:	200dd640 	call	200dd64 <__gtdf2>
 20051c0:	00bc470e 	bge	zero,r2,20042e0 <_dtoa_r+0x578>
 20051c4:	00c00c04 	movi	r3,48
 20051c8:	e73fffc4 	addi	fp,fp,-1
 20051cc:	e0800007 	ldb	r2,0(fp)
 20051d0:	10fffd26 	beq	r2,r3,20051c8 <_dtoa_r+0x1460>
 20051d4:	d9800417 	ldw	r6,16(sp)
 20051d8:	e7000044 	addi	fp,fp,1
 20051dc:	d9800d15 	stw	r6,52(sp)
 20051e0:	003cab06 	br	2004490 <_dtoa_r+0x728>
 20051e4:	d8c00f17 	ldw	r3,60(sp)
 20051e8:	d9001117 	ldw	r4,68(sp)
 20051ec:	20e1c83a 	sub	r16,r4,r3
 20051f0:	0007883a 	mov	r3,zero
 20051f4:	003d9b06 	br	2004864 <_dtoa_r+0xafc>
 20051f8:	00800e44 	movi	r2,57
 20051fc:	b0800005 	stb	r2,0(r22)
 2005200:	b5800044 	addi	r22,r22,1
 2005204:	003dc106 	br	200490c <_dtoa_r+0xba4>
 2005208:	05800084 	movi	r22,2
 200520c:	003bf706 	br	20041ec <_dtoa_r+0x484>
 2005210:	d9000f17 	ldw	r4,60(sp)
 2005214:	013c000e 	bge	zero,r4,2004218 <_dtoa_r+0x4b0>
 2005218:	d9800e17 	ldw	r6,56(sp)
 200521c:	01bc300e 	bge	zero,r6,20042e0 <_dtoa_r+0x578>
 2005220:	0005883a 	mov	r2,zero
 2005224:	00d00934 	movhi	r3,16420
 2005228:	a80b883a 	mov	r5,r21
 200522c:	180f883a 	mov	r7,r3
 2005230:	a009883a 	mov	r4,r20
 2005234:	100d883a 	mov	r6,r2
 2005238:	200d6380 	call	200d638 <__muldf3>
 200523c:	b1000044 	addi	r4,r22,1
 2005240:	1021883a 	mov	r16,r2
 2005244:	1823883a 	mov	r17,r3
 2005248:	200df840 	call	200df84 <__floatsidf>
 200524c:	880b883a 	mov	r5,r17
 2005250:	8009883a 	mov	r4,r16
 2005254:	180f883a 	mov	r7,r3
 2005258:	100d883a 	mov	r6,r2
 200525c:	200d6380 	call	200d638 <__muldf3>
 2005260:	0011883a 	mov	r8,zero
 2005264:	02500734 	movhi	r9,16412
 2005268:	180b883a 	mov	r5,r3
 200526c:	480f883a 	mov	r7,r9
 2005270:	1009883a 	mov	r4,r2
 2005274:	400d883a 	mov	r6,r8
 2005278:	200d5c40 	call	200d5c4 <__adddf3>
 200527c:	102d883a 	mov	r22,r2
 2005280:	00bf3034 	movhi	r2,64704
 2005284:	10ef883a 	add	r23,r2,r3
 2005288:	d8800d17 	ldw	r2,52(sp)
 200528c:	d8c00e17 	ldw	r3,56(sp)
 2005290:	8029883a 	mov	r20,r16
 2005294:	10bfffc4 	addi	r2,r2,-1
 2005298:	882b883a 	mov	r21,r17
 200529c:	d8800415 	stw	r2,16(sp)
 20052a0:	d8c00315 	stw	r3,12(sp)
 20052a4:	003e8306 	br	2004cb4 <_dtoa_r+0xf4c>
 20052a8:	d8800117 	ldw	r2,4(sp)
 20052ac:	dc001117 	ldw	r16,68(sp)
 20052b0:	dc801017 	ldw	r18,64(sp)
 20052b4:	00c00d84 	movi	r3,54
 20052b8:	1887c83a 	sub	r3,r3,r2
 20052bc:	003d6906 	br	2004864 <_dtoa_r+0xafc>
 20052c0:	01800044 	movi	r6,1
 20052c4:	3021883a 	mov	r16,r6
 20052c8:	d9800f15 	stw	r6,60(sp)
 20052cc:	d9802615 	stw	r6,152(sp)
 20052d0:	d9800e15 	stw	r6,56(sp)
 20052d4:	003b9306 	br	2004124 <_dtoa_r+0x3bc>
 20052d8:	b021883a 	mov	r16,r22
 20052dc:	dd800f15 	stw	r22,60(sp)
 20052e0:	003b9006 	br	2004124 <_dtoa_r+0x3bc>
 20052e4:	103e221e 	bne	r2,zero,2004b70 <_dtoa_r+0xe08>
 20052e8:	b880004c 	andi	r2,r23,1
 20052ec:	1005003a 	cmpeq	r2,r2,zero
 20052f0:	103e1f1e 	bne	r2,zero,2004b70 <_dtoa_r+0xe08>
 20052f4:	003e1b06 	br	2004b64 <_dtoa_r+0xdfc>
 20052f8:	d9001617 	ldw	r4,88(sp)
 20052fc:	980b883a 	mov	r5,r19
 2005300:	01800284 	movi	r6,10
 2005304:	000f883a 	mov	r7,zero
 2005308:	2007f180 	call	2007f18 <__multadd>
 200530c:	d8c00e17 	ldw	r3,56(sp)
 2005310:	1027883a 	mov	r19,r2
 2005314:	d8c00f15 	stw	r3,60(sp)
 2005318:	003cd306 	br	2004668 <_dtoa_r+0x900>

0200531c <_fflush_r>:
 200531c:	defffb04 	addi	sp,sp,-20
 2005320:	dcc00315 	stw	r19,12(sp)
 2005324:	dc800215 	stw	r18,8(sp)
 2005328:	dfc00415 	stw	ra,16(sp)
 200532c:	dc400115 	stw	r17,4(sp)
 2005330:	dc000015 	stw	r16,0(sp)
 2005334:	2027883a 	mov	r19,r4
 2005338:	2825883a 	mov	r18,r5
 200533c:	20000226 	beq	r4,zero,2005348 <_fflush_r+0x2c>
 2005340:	20800e17 	ldw	r2,56(r4)
 2005344:	10005626 	beq	r2,zero,20054a0 <_fflush_r+0x184>
 2005348:	9100030b 	ldhu	r4,12(r18)
 200534c:	20ffffcc 	andi	r3,r4,65535
 2005350:	18e0001c 	xori	r3,r3,32768
 2005354:	18e00004 	addi	r3,r3,-32768
 2005358:	1880020c 	andi	r2,r3,8
 200535c:	1000261e 	bne	r2,zero,20053f8 <_fflush_r+0xdc>
 2005360:	90c00117 	ldw	r3,4(r18)
 2005364:	20820014 	ori	r2,r4,2048
 2005368:	9080030d 	sth	r2,12(r18)
 200536c:	1009883a 	mov	r4,r2
 2005370:	00c0400e 	bge	zero,r3,2005474 <_fflush_r+0x158>
 2005374:	92000a17 	ldw	r8,40(r18)
 2005378:	40004026 	beq	r8,zero,200547c <_fflush_r+0x160>
 200537c:	2084000c 	andi	r2,r4,4096
 2005380:	10005326 	beq	r2,zero,20054d0 <_fflush_r+0x1b4>
 2005384:	94001417 	ldw	r16,80(r18)
 2005388:	9080030b 	ldhu	r2,12(r18)
 200538c:	1080010c 	andi	r2,r2,4
 2005390:	1000481e 	bne	r2,zero,20054b4 <_fflush_r+0x198>
 2005394:	91400717 	ldw	r5,28(r18)
 2005398:	9809883a 	mov	r4,r19
 200539c:	800d883a 	mov	r6,r16
 20053a0:	000f883a 	mov	r7,zero
 20053a4:	403ee83a 	callr	r8
 20053a8:	8080261e 	bne	r16,r2,2005444 <_fflush_r+0x128>
 20053ac:	9080030b 	ldhu	r2,12(r18)
 20053b0:	91000417 	ldw	r4,16(r18)
 20053b4:	90000115 	stw	zero,4(r18)
 20053b8:	10bdffcc 	andi	r2,r2,63487
 20053bc:	10ffffcc 	andi	r3,r2,65535
 20053c0:	18c4000c 	andi	r3,r3,4096
 20053c4:	9080030d 	sth	r2,12(r18)
 20053c8:	91000015 	stw	r4,0(r18)
 20053cc:	18002b26 	beq	r3,zero,200547c <_fflush_r+0x160>
 20053d0:	0007883a 	mov	r3,zero
 20053d4:	1805883a 	mov	r2,r3
 20053d8:	94001415 	stw	r16,80(r18)
 20053dc:	dfc00417 	ldw	ra,16(sp)
 20053e0:	dcc00317 	ldw	r19,12(sp)
 20053e4:	dc800217 	ldw	r18,8(sp)
 20053e8:	dc400117 	ldw	r17,4(sp)
 20053ec:	dc000017 	ldw	r16,0(sp)
 20053f0:	dec00504 	addi	sp,sp,20
 20053f4:	f800283a 	ret
 20053f8:	94400417 	ldw	r17,16(r18)
 20053fc:	88001f26 	beq	r17,zero,200547c <_fflush_r+0x160>
 2005400:	90800017 	ldw	r2,0(r18)
 2005404:	18c000cc 	andi	r3,r3,3
 2005408:	94400015 	stw	r17,0(r18)
 200540c:	1461c83a 	sub	r16,r2,r17
 2005410:	18002526 	beq	r3,zero,20054a8 <_fflush_r+0x18c>
 2005414:	0005883a 	mov	r2,zero
 2005418:	90800215 	stw	r2,8(r18)
 200541c:	0400170e 	bge	zero,r16,200547c <_fflush_r+0x160>
 2005420:	90c00917 	ldw	r3,36(r18)
 2005424:	91400717 	ldw	r5,28(r18)
 2005428:	880d883a 	mov	r6,r17
 200542c:	800f883a 	mov	r7,r16
 2005430:	9809883a 	mov	r4,r19
 2005434:	183ee83a 	callr	r3
 2005438:	88a3883a 	add	r17,r17,r2
 200543c:	80a1c83a 	sub	r16,r16,r2
 2005440:	00bff616 	blt	zero,r2,200541c <_fflush_r+0x100>
 2005444:	9080030b 	ldhu	r2,12(r18)
 2005448:	00ffffc4 	movi	r3,-1
 200544c:	10801014 	ori	r2,r2,64
 2005450:	9080030d 	sth	r2,12(r18)
 2005454:	1805883a 	mov	r2,r3
 2005458:	dfc00417 	ldw	ra,16(sp)
 200545c:	dcc00317 	ldw	r19,12(sp)
 2005460:	dc800217 	ldw	r18,8(sp)
 2005464:	dc400117 	ldw	r17,4(sp)
 2005468:	dc000017 	ldw	r16,0(sp)
 200546c:	dec00504 	addi	sp,sp,20
 2005470:	f800283a 	ret
 2005474:	90800f17 	ldw	r2,60(r18)
 2005478:	00bfbe16 	blt	zero,r2,2005374 <_fflush_r+0x58>
 200547c:	0007883a 	mov	r3,zero
 2005480:	1805883a 	mov	r2,r3
 2005484:	dfc00417 	ldw	ra,16(sp)
 2005488:	dcc00317 	ldw	r19,12(sp)
 200548c:	dc800217 	ldw	r18,8(sp)
 2005490:	dc400117 	ldw	r17,4(sp)
 2005494:	dc000017 	ldw	r16,0(sp)
 2005498:	dec00504 	addi	sp,sp,20
 200549c:	f800283a 	ret
 20054a0:	20055b40 	call	20055b4 <__sinit>
 20054a4:	003fa806 	br	2005348 <_fflush_r+0x2c>
 20054a8:	90800517 	ldw	r2,20(r18)
 20054ac:	90800215 	stw	r2,8(r18)
 20054b0:	003fda06 	br	200541c <_fflush_r+0x100>
 20054b4:	90800117 	ldw	r2,4(r18)
 20054b8:	90c00c17 	ldw	r3,48(r18)
 20054bc:	80a1c83a 	sub	r16,r16,r2
 20054c0:	183fb426 	beq	r3,zero,2005394 <_fflush_r+0x78>
 20054c4:	90800f17 	ldw	r2,60(r18)
 20054c8:	80a1c83a 	sub	r16,r16,r2
 20054cc:	003fb106 	br	2005394 <_fflush_r+0x78>
 20054d0:	91400717 	ldw	r5,28(r18)
 20054d4:	9809883a 	mov	r4,r19
 20054d8:	000d883a 	mov	r6,zero
 20054dc:	01c00044 	movi	r7,1
 20054e0:	403ee83a 	callr	r8
 20054e4:	1021883a 	mov	r16,r2
 20054e8:	00bfffc4 	movi	r2,-1
 20054ec:	80800226 	beq	r16,r2,20054f8 <_fflush_r+0x1dc>
 20054f0:	92000a17 	ldw	r8,40(r18)
 20054f4:	003fa406 	br	2005388 <_fflush_r+0x6c>
 20054f8:	98c00017 	ldw	r3,0(r19)
 20054fc:	00800744 	movi	r2,29
 2005500:	18bfde26 	beq	r3,r2,200547c <_fflush_r+0x160>
 2005504:	9080030b 	ldhu	r2,12(r18)
 2005508:	8007883a 	mov	r3,r16
 200550c:	10801014 	ori	r2,r2,64
 2005510:	9080030d 	sth	r2,12(r18)
 2005514:	003fcf06 	br	2005454 <_fflush_r+0x138>

02005518 <fflush>:
 2005518:	01408034 	movhi	r5,512
 200551c:	2954c704 	addi	r5,r5,21276
 2005520:	2007883a 	mov	r3,r4
 2005524:	20000526 	beq	r4,zero,200553c <fflush+0x24>
 2005528:	00808074 	movhi	r2,513
 200552c:	10899604 	addi	r2,r2,9816
 2005530:	11000017 	ldw	r4,0(r2)
 2005534:	180b883a 	mov	r5,r3
 2005538:	200531c1 	jmpi	200531c <_fflush_r>
 200553c:	00808074 	movhi	r2,513
 2005540:	10899704 	addi	r2,r2,9820
 2005544:	11000017 	ldw	r4,0(r2)
 2005548:	20063241 	jmpi	2006324 <_fwalk_reent>

0200554c <std>:
 200554c:	00808074 	movhi	r2,513
 2005550:	10a32a04 	addi	r2,r2,-29528
 2005554:	20800b15 	stw	r2,44(r4)
 2005558:	00808074 	movhi	r2,513
 200555c:	10a36504 	addi	r2,r2,-29292
 2005560:	20800815 	stw	r2,32(r4)
 2005564:	00c08074 	movhi	r3,513
 2005568:	18e34604 	addi	r3,r3,-29416
 200556c:	00808074 	movhi	r2,513
 2005570:	10a32c04 	addi	r2,r2,-29520
 2005574:	2140030d 	sth	r5,12(r4)
 2005578:	2180038d 	sth	r6,14(r4)
 200557c:	20c00915 	stw	r3,36(r4)
 2005580:	20800a15 	stw	r2,40(r4)
 2005584:	20000015 	stw	zero,0(r4)
 2005588:	20000115 	stw	zero,4(r4)
 200558c:	20000215 	stw	zero,8(r4)
 2005590:	20000415 	stw	zero,16(r4)
 2005594:	20000515 	stw	zero,20(r4)
 2005598:	20000615 	stw	zero,24(r4)
 200559c:	21000715 	stw	r4,28(r4)
 20055a0:	f800283a 	ret

020055a4 <__sfp_lock_acquire>:
 20055a4:	f800283a 	ret

020055a8 <__sfp_lock_release>:
 20055a8:	f800283a 	ret

020055ac <__sinit_lock_acquire>:
 20055ac:	f800283a 	ret

020055b0 <__sinit_lock_release>:
 20055b0:	f800283a 	ret

020055b4 <__sinit>:
 20055b4:	20800e17 	ldw	r2,56(r4)
 20055b8:	defffd04 	addi	sp,sp,-12
 20055bc:	dc400115 	stw	r17,4(sp)
 20055c0:	dc000015 	stw	r16,0(sp)
 20055c4:	dfc00215 	stw	ra,8(sp)
 20055c8:	04400044 	movi	r17,1
 20055cc:	01400104 	movi	r5,4
 20055d0:	000d883a 	mov	r6,zero
 20055d4:	2021883a 	mov	r16,r4
 20055d8:	2200bb04 	addi	r8,r4,748
 20055dc:	200f883a 	mov	r7,r4
 20055e0:	10000526 	beq	r2,zero,20055f8 <__sinit+0x44>
 20055e4:	dfc00217 	ldw	ra,8(sp)
 20055e8:	dc400117 	ldw	r17,4(sp)
 20055ec:	dc000017 	ldw	r16,0(sp)
 20055f0:	dec00304 	addi	sp,sp,12
 20055f4:	f800283a 	ret
 20055f8:	21000117 	ldw	r4,4(r4)
 20055fc:	00808034 	movhi	r2,512
 2005600:	1095a604 	addi	r2,r2,22168
 2005604:	00c000c4 	movi	r3,3
 2005608:	80800f15 	stw	r2,60(r16)
 200560c:	80c0b915 	stw	r3,740(r16)
 2005610:	8200ba15 	stw	r8,744(r16)
 2005614:	84400e15 	stw	r17,56(r16)
 2005618:	8000b815 	stw	zero,736(r16)
 200561c:	200554c0 	call	200554c <std>
 2005620:	81000217 	ldw	r4,8(r16)
 2005624:	880d883a 	mov	r6,r17
 2005628:	800f883a 	mov	r7,r16
 200562c:	01400284 	movi	r5,10
 2005630:	200554c0 	call	200554c <std>
 2005634:	81000317 	ldw	r4,12(r16)
 2005638:	800f883a 	mov	r7,r16
 200563c:	01400484 	movi	r5,18
 2005640:	01800084 	movi	r6,2
 2005644:	dfc00217 	ldw	ra,8(sp)
 2005648:	dc400117 	ldw	r17,4(sp)
 200564c:	dc000017 	ldw	r16,0(sp)
 2005650:	dec00304 	addi	sp,sp,12
 2005654:	200554c1 	jmpi	200554c <std>

02005658 <__fp_lock>:
 2005658:	0005883a 	mov	r2,zero
 200565c:	f800283a 	ret

02005660 <__fp_unlock>:
 2005660:	0005883a 	mov	r2,zero
 2005664:	f800283a 	ret

02005668 <__fp_unlock_all>:
 2005668:	00808074 	movhi	r2,513
 200566c:	10899604 	addi	r2,r2,9816
 2005670:	11000017 	ldw	r4,0(r2)
 2005674:	01408034 	movhi	r5,512
 2005678:	29559804 	addi	r5,r5,22112
 200567c:	20063ec1 	jmpi	20063ec <_fwalk>

02005680 <__fp_lock_all>:
 2005680:	00808074 	movhi	r2,513
 2005684:	10899604 	addi	r2,r2,9816
 2005688:	11000017 	ldw	r4,0(r2)
 200568c:	01408034 	movhi	r5,512
 2005690:	29559604 	addi	r5,r5,22104
 2005694:	20063ec1 	jmpi	20063ec <_fwalk>

02005698 <_cleanup_r>:
 2005698:	01408074 	movhi	r5,513
 200569c:	296d6504 	addi	r5,r5,-19052
 20056a0:	20063ec1 	jmpi	20063ec <_fwalk>

020056a4 <_cleanup>:
 20056a4:	00808074 	movhi	r2,513
 20056a8:	10899704 	addi	r2,r2,9820
 20056ac:	11000017 	ldw	r4,0(r2)
 20056b0:	20056981 	jmpi	2005698 <_cleanup_r>

020056b4 <__sfmoreglue>:
 20056b4:	defffc04 	addi	sp,sp,-16
 20056b8:	dc400115 	stw	r17,4(sp)
 20056bc:	2c401724 	muli	r17,r5,92
 20056c0:	dc800215 	stw	r18,8(sp)
 20056c4:	2825883a 	mov	r18,r5
 20056c8:	89400304 	addi	r5,r17,12
 20056cc:	dc000015 	stw	r16,0(sp)
 20056d0:	dfc00315 	stw	ra,12(sp)
 20056d4:	20067280 	call	2006728 <_malloc_r>
 20056d8:	0021883a 	mov	r16,zero
 20056dc:	880d883a 	mov	r6,r17
 20056e0:	000b883a 	mov	r5,zero
 20056e4:	10000626 	beq	r2,zero,2005700 <__sfmoreglue+0x4c>
 20056e8:	11000304 	addi	r4,r2,12
 20056ec:	14800115 	stw	r18,4(r2)
 20056f0:	10000015 	stw	zero,0(r2)
 20056f4:	11000215 	stw	r4,8(r2)
 20056f8:	1021883a 	mov	r16,r2
 20056fc:	20071cc0 	call	20071cc <memset>
 2005700:	8005883a 	mov	r2,r16
 2005704:	dfc00317 	ldw	ra,12(sp)
 2005708:	dc800217 	ldw	r18,8(sp)
 200570c:	dc400117 	ldw	r17,4(sp)
 2005710:	dc000017 	ldw	r16,0(sp)
 2005714:	dec00404 	addi	sp,sp,16
 2005718:	f800283a 	ret

0200571c <__sfp>:
 200571c:	defffd04 	addi	sp,sp,-12
 2005720:	00808074 	movhi	r2,513
 2005724:	10899704 	addi	r2,r2,9820
 2005728:	dc000015 	stw	r16,0(sp)
 200572c:	14000017 	ldw	r16,0(r2)
 2005730:	dc400115 	stw	r17,4(sp)
 2005734:	dfc00215 	stw	ra,8(sp)
 2005738:	80800e17 	ldw	r2,56(r16)
 200573c:	2023883a 	mov	r17,r4
 2005740:	10002626 	beq	r2,zero,20057dc <__sfp+0xc0>
 2005744:	8400b804 	addi	r16,r16,736
 2005748:	80800117 	ldw	r2,4(r16)
 200574c:	81000217 	ldw	r4,8(r16)
 2005750:	10ffffc4 	addi	r3,r2,-1
 2005754:	18000916 	blt	r3,zero,200577c <__sfp+0x60>
 2005758:	2080030f 	ldh	r2,12(r4)
 200575c:	10000b26 	beq	r2,zero,200578c <__sfp+0x70>
 2005760:	017fffc4 	movi	r5,-1
 2005764:	00000206 	br	2005770 <__sfp+0x54>
 2005768:	2080030f 	ldh	r2,12(r4)
 200576c:	10000726 	beq	r2,zero,200578c <__sfp+0x70>
 2005770:	18ffffc4 	addi	r3,r3,-1
 2005774:	21001704 	addi	r4,r4,92
 2005778:	197ffb1e 	bne	r3,r5,2005768 <__sfp+0x4c>
 200577c:	80800017 	ldw	r2,0(r16)
 2005780:	10001926 	beq	r2,zero,20057e8 <__sfp+0xcc>
 2005784:	1021883a 	mov	r16,r2
 2005788:	003fef06 	br	2005748 <__sfp+0x2c>
 200578c:	00bfffc4 	movi	r2,-1
 2005790:	00c00044 	movi	r3,1
 2005794:	2080038d 	sth	r2,14(r4)
 2005798:	20c0030d 	sth	r3,12(r4)
 200579c:	20000015 	stw	zero,0(r4)
 20057a0:	20000215 	stw	zero,8(r4)
 20057a4:	20000115 	stw	zero,4(r4)
 20057a8:	20000415 	stw	zero,16(r4)
 20057ac:	20000515 	stw	zero,20(r4)
 20057b0:	20000615 	stw	zero,24(r4)
 20057b4:	20000c15 	stw	zero,48(r4)
 20057b8:	20000d15 	stw	zero,52(r4)
 20057bc:	20001115 	stw	zero,68(r4)
 20057c0:	20001215 	stw	zero,72(r4)
 20057c4:	2005883a 	mov	r2,r4
 20057c8:	dfc00217 	ldw	ra,8(sp)
 20057cc:	dc400117 	ldw	r17,4(sp)
 20057d0:	dc000017 	ldw	r16,0(sp)
 20057d4:	dec00304 	addi	sp,sp,12
 20057d8:	f800283a 	ret
 20057dc:	8009883a 	mov	r4,r16
 20057e0:	20055b40 	call	20055b4 <__sinit>
 20057e4:	003fd706 	br	2005744 <__sfp+0x28>
 20057e8:	8809883a 	mov	r4,r17
 20057ec:	01400104 	movi	r5,4
 20057f0:	20056b40 	call	20056b4 <__sfmoreglue>
 20057f4:	80800015 	stw	r2,0(r16)
 20057f8:	103fe21e 	bne	r2,zero,2005784 <__sfp+0x68>
 20057fc:	00800304 	movi	r2,12
 2005800:	0009883a 	mov	r4,zero
 2005804:	88800015 	stw	r2,0(r17)
 2005808:	003fee06 	br	20057c4 <__sfp+0xa8>

0200580c <_fread_r>:
